

Microchip MPLAB XC8 Assembler V2.41 build 20230208172133 
                                                                                               Sun Dec 03 19:29:47 2023

Microchip MPLAB XC8 C Compiler v2.41 (Free license) build 20230208172133 Og1 
     1                           	processor	18F4620
     2                           	fnconf	rparam,??,?,0
     3                           	pagewidth 120
     4                           	opt	flic
     5                           	psect	idataCOMRAM,global,class=CODE,delta=1,noexec
     6                           	psect	smallconst,global,reloc=2,class=SMALLCONST,delta=1,noexec
     7                           	psect	nvCOMRAM,global,class=COMRAM,space=1,delta=1,lowdata,noexec
     8                           	psect	cinit,global,reloc=2,class=CODE,delta=1
     9                           	psect	bssCOMRAM,global,class=COMRAM,space=1,delta=1,lowdata,noexec
    10                           	psect	dataCOMRAM,global,class=COMRAM,space=1,delta=1,lowdata,noexec
    11                           	psect	cstackCOMRAM,global,class=COMRAM,space=1,delta=1,lowdata,noexec
    12                           	psect	text0,global,reloc=2,class=CODE,delta=1
    13                           	psect	text1,global,reloc=2,class=CODE,delta=1
    14                           	psect	text2,global,reloc=2,class=CODE,delta=1
    15                           	psect	text3,global,reloc=2,class=CODE,delta=1
    16                           	psect	text4,global,reloc=2,class=CODE,delta=1
    17                           	psect	text5,global,reloc=2,class=CODE,delta=1
    18                           	psect	text6,global,reloc=2,class=CODE,delta=1
    19                           	psect	text7,global,reloc=2,class=CODE,delta=1
    20                           	psect	text8,global,reloc=2,class=CODE,delta=1
    21                           	psect	text9,global,reloc=2,class=CODE,delta=1
    22                           	psect	text10,global,reloc=2,class=CODE,delta=1
    23                           	psect	text11,global,reloc=2,class=CODE,delta=1
    24                           	psect	text12,global,reloc=2,class=CODE,delta=1
    25                           	psect	text13,global,reloc=2,class=CODE,delta=1,group=1
    26                           	psect	text14,global,reloc=2,class=CODE,delta=1,group=1
    27                           	psect	intsave_regs,global,class=BIGRAM,space=1,delta=1,noexec
    28                           	psect	rparam,global,class=COMRAM,space=1,delta=1,noexec
    29                           	psect	config,global,abs,ovrld,class=CONFIG,space=4,delta=1,noexec
    30   000000                     
    31                           ; Generated 23/03/2023 GMT
    32                           ; 
    33                           ; Copyright © 2023, Microchip Technology Inc. and its subsidiaries ("Microchip")
    34                           ; All rights reserved.
    35                           ; 
    36                           ; This software is developed by Microchip Technology Inc. and its subsidiaries ("Microch
      +                          ip").
    37                           ; 
    38                           ; Redistribution and use in source and binary forms, with or without modification, are
    39                           ; permitted provided that the following conditions are met:
    40                           ; 
    41                           ;     1. Redistributions of source code must retain the above copyright notice, this lis
      +                          t of
    42                           ;        conditions and the following disclaimer.
    43                           ; 
    44                           ;     2. Redistributions in binary form must reproduce the above copyright notice, this 
      +                          list
    45                           ;        of conditions and the following disclaimer in the documentation and/or other
    46                           ;        materials provided with the distribution. Publication is not required when
    47                           ;        this file is used in an embedded application.
    48                           ; 
    49                           ;     3. Microchip's name may not be used to endorse or promote products derived from th
      +                          is
    50                           ;        software without specific prior written permission.
    51                           ; 
    52                           ; THIS SOFTWARE IS PROVIDED BY MICROCHIP "AS IS" AND ANY EXPRESS OR IMPLIED WARRANTIES,
    53                           ; INCLUDING, BUT NOT LIMITED TO, THE IMPLIED WARRANTIES OF MERCHANTABILITY AND FITNESS F
      +                          OR
    54                           ; PURPOSE ARE DISCLAIMED.  IN NO EVENT SHALL MICROCHIP BE LIABLE FOR ANY DIRECT, INDIREC
      +                          T,
    55                           ; INCIDENTAL, SPECIAL, EXEMPLARY, OR CONSEQUENTIAL DAMAGES (INCLUDING BUT NOT LIMITED TO
    56                           ; PROCUREMENT OF SUBSTITUTE GOODS OR SERVICES; LOSS OF USE, DATA OR PROFITS; OR BUSINESS
    57                           ; INTERRUPTION) HOWSOEVER CAUSED AND ON ANY THEORY OF LIABILITY, WHETHER IN CONTRACT, ST
      +                          RICT
    58                           ; LIABILITY, OR TORT (INCLUDING NEGLIGENCE OR OTHERWISE) ARISING IN ANY WAY OUT OF THE U
      +                          SE OF
    59                           ; THIS SOFTWARE, EVEN IF ADVISED OF THE POSSIBILITY OF SUCH DAMAGE.
    60                           ; 
    61                           ; 
    62                           ; Code-generator required, PIC18F4620 Definitions
    63                           ; 
    64                           ; SFR Addresses
    65   000000                     
    66                           	psect	idataCOMRAM
    67   001A28                     __pidataCOMRAM:
    68                           	callstack 0
    69                           
    70                           ;initializer for _port_reg
    71   001A28  80                 	db	128
    72   001A29  0F                 	db	15
    73   001A2A  81                 	db	129
    74   001A2B  0F                 	db	15
    75   001A2C  82                 	db	130
    76   001A2D  0F                 	db	15
    77   001A2E  83                 	db	131
    78   001A2F  0F                 	db	15
    79   001A30  84                 	db	132
    80   001A31  0F                 	db	15
    81                           
    82                           ;initializer for _lat_reg
    83   001A32  89                 	db	137
    84   001A33  0F                 	db	15
    85   001A34  8A                 	db	138
    86   001A35  0F                 	db	15
    87   001A36  8B                 	db	139
    88   001A37  0F                 	db	15
    89   001A38  8C                 	db	140
    90   001A39  0F                 	db	15
    91   001A3A  8D                 	db	141
    92   001A3B  0F                 	db	15
    93                           
    94                           ;initializer for _tris_reg
    95   001A3C  92                 	db	146
    96   001A3D  0F                 	db	15
    97   001A3E  93                 	db	147
    98   001A3F  0F                 	db	15
    99   001A40  94                 	db	148
   100   001A41  0F                 	db	15
   101   001A42  95                 	db	149
   102   001A43  0F                 	db	15
   103   001A44  96                 	db	150
   104   001A45  0F                 	db	15
   105                           
   106                           ;initializer for _hr
   107   001A46  17                 	db	23
   108                           
   109                           ;initializer for _min
   110   001A47  3B                 	db	59
   111                           
   112                           ;initializer for _sec
   113   001A48  37                 	db	55
   114                           
   115                           ;initializer for _seven_seg1
   116   001A49  02                 	db	2
   117   001A4A  0A                 	db	10
   118   001A4B  12                 	db	18
   119   001A4C  1A                 	db	26
   120   001A4D  00                 	db	0
   121                           
   122                           ;initializer for _min_btn
   123   001A4E  49                 	db	73
   124   001A4F  01                 	db	1
   125   001A50  00                 	db	0
   126                           
   127                           ;initializer for _hr_btn
   128   001A51  41                 	db	65
   129   001A52  01                 	db	1
   130   001A53  00                 	db	0
   131                           
   132                           ;initializer for _led1
   133   001A54  18                 	db	24
   134                           
   135                           	psect	smallconst
   136   001000                     __psmallconst:
   137                           	callstack 0
   138   001000  00                 	db	0
   139   001001                     _btn_values:
   140                           	callstack 0
   141   001001  37                 	db	55
   142   001002  38                 	db	56
   143   001003  39                 	db	57
   144   001004  2F                 	db	47
   145   001005  34                 	db	52
   146   001006  35                 	db	53
   147   001007  36                 	db	54
   148   001008  2A                 	db	42
   149   001009  31                 	db	49
   150   00100A  32                 	db	50
   151   00100B  33                 	db	51
   152   00100C  2D                 	db	45
   153   00100D  23                 	db	35
   154   00100E  30                 	db	48
   155   00100F  3D                 	db	61
   156   001010  2B                 	db	43
   157   001011                     __end_of_btn_values:
   158                           	callstack 0
   159   001011  00                 	db	0	; dummy byte at the end
   160   000000                     
   161                           	psect	nvCOMRAM
   162   00004C                     __pnvCOMRAM:
   163                           	callstack 0
   164   00004C                     _ret:
   165                           	callstack 0
   166   00004C                     	ds	1
   167   000000                     _PORTE	set	3972
   168   000000                     _PORTD	set	3971
   169   000000                     _PORTC	set	3970
   170   000000                     _PORTB	set	3969
   171   000000                     _PORTA	set	3968
   172   000000                     _LATA	set	3977
   173   000000                     _TRISA	set	3986
   174   000000                     _TRISE	set	3990
   175   000000                     _TRISD	set	3989
   176   000000                     _TRISC	set	3988
   177   000000                     _TRISB	set	3987
   178   000000                     _LATE	set	3981
   179   000000                     _LATD	set	3980
   180   000000                     _LATC	set	3979
   181   000000                     _LATB	set	3978
   182                           
   183                           ; #config settings
   184                           
   185                           	psect	cinit
   186   0019C4                     __pcinit:
   187                           	callstack 0
   188   0019C4                     start_initialization:
   189                           	callstack 0
   190   0019C4                     __initialization:
   191                           	callstack 0
   192                           
   193                           ; Initialize objects allocated to COMRAM (45 bytes)
   194                           ; load TBLPTR registers with __pidataCOMRAM
   195   0019C4  0E28               	movlw	low __pidataCOMRAM
   196   0019C6  6EF6               	movwf	tblptrl,c
   197   0019C8  0E1A               	movlw	high __pidataCOMRAM
   198   0019CA  6EF7               	movwf	tblptrh,c
   199   0019CC  0E00               	movlw	low (__pidataCOMRAM shr (0+16))
   200   0019CE  6EF8               	movwf	tblptru,c
   201   0019D0  EE00  F001         	lfsr	0,__pdataCOMRAM
   202   0019D4  EE10 F02D          	lfsr	1,45
   203   0019D8                     copy_data0:
   204   0019D8  0009               	tblrd		*+
   205   0019DA  CFF5 FFEE          	movff	tablat,postinc0
   206   0019DE  50E5               	movf	postdec1,w,c
   207   0019E0  50E1               	movf	fsr1l,w,c
   208   0019E2  E1FA               	bnz	copy_data0
   209                           
   210                           ; Clear objects allocated to COMRAM (10 bytes)
   211   0019E4  EE00  F042         	lfsr	0,__pbssCOMRAM
   212   0019E8  0E0A               	movlw	10
   213   0019EA                     clear_0:
   214   0019EA  6AEE               	clrf	postinc0,c
   215   0019EC  06E8               	decf	wreg,f,c
   216   0019EE  E1FD               	bnz	clear_0
   217   0019F0                     end_of_initialization:
   218                           	callstack 0
   219   0019F0                     __end_of__initialization:
   220                           	callstack 0
   221   0019F0  0E00               	movlw	low (__Lmediumconst shr (0+16))
   222   0019F2  6EF8               	movwf	tblptru,c
   223   0019F4  0100               	movlb	0
   224   0019F6  EF09  F008         	goto	_main	;jump to C main() function
   225                           
   226                           	psect	bssCOMRAM
   227   000042                     __pbssCOMRAM:
   228                           	callstack 0
   229   000042                     _counter:
   230                           	callstack 0
   231   000042                     	ds	1
   232   000043                     relay_turn_off@F2890:
   233                           	callstack 0
   234   000043                     	ds	1
   235   000044                     relay_turn_on@F2885:
   236                           	callstack 0
   237   000044                     	ds	1
   238   000045                     relay_intialize@F2880:
   239                           	callstack 0
   240   000045                     	ds	1
   241   000046                     led_toggle@F2897:
   242                           	callstack 0
   243   000046                     	ds	1
   244   000047                     led_turn_off@F2892:
   245                           	callstack 0
   246   000047                     	ds	1
   247   000048                     led_turn_on@F2887:
   248                           	callstack 0
   249   000048                     	ds	1
   250   000049                     led_intialize@F2882:
   251                           	callstack 0
   252   000049                     	ds	1
   253   00004A                     _min_value:
   254                           	callstack 0
   255   00004A                     	ds	1
   256   00004B                     _hr_value:
   257                           	callstack 0
   258   00004B                     	ds	1
   259                           
   260                           	psect	dataCOMRAM
   261   000001                     __pdataCOMRAM:
   262                           	callstack 0
   263   000001                     _port_reg:
   264                           	callstack 0
   265   000001                     	ds	10
   266   00000B                     _lat_reg:
   267                           	callstack 0
   268   00000B                     	ds	10
   269   000015                     _tris_reg:
   270                           	callstack 0
   271   000015                     	ds	10
   272   00001F                     _hr:
   273                           	callstack 0
   274   00001F                     	ds	1
   275   000020                     _min:
   276                           	callstack 0
   277   000020                     	ds	1
   278   000021                     _sec:
   279                           	callstack 0
   280   000021                     	ds	1
   281   000022                     _seven_seg1:
   282                           	callstack 0
   283   000022                     	ds	5
   284   000027                     _min_btn:
   285                           	callstack 0
   286   000027                     	ds	3
   287   00002A                     _hr_btn:
   288                           	callstack 0
   289   00002A                     	ds	3
   290   00002D                     _led1:
   291                           	callstack 0
   292   00002D                     	ds	1
   293                           
   294                           	psect	cstackCOMRAM
   295   00002E                     __pcstackCOMRAM:
   296                           	callstack 0
   297   00002E                     ?___awdiv:
   298                           	callstack 0
   299   00002E                     ?___awmod:
   300                           	callstack 0
   301   00002E                     gpio_port_direction_initialize@direction:
   302                           	callstack 0
   303   00002E                     gpio_pin_direction_initialize@pin_config:
   304                           	callstack 0
   305   00002E                     gpio_pin_write_logic@pin_config:
   306                           	callstack 0
   307   00002E                     gpio_pin_read_logic@pin_config:
   308                           	callstack 0
   309   00002E                     ___awdiv@dividend:
   310                           	callstack 0
   311   00002E                     ___awmod@dividend:
   312                           	callstack 0
   313                           
   314                           ; 2 bytes @ 0x0
   315   00002E                     	ds	1
   316   00002F                     ??_gpio_port_direction_initialize:
   317                           
   318                           ; 1 bytes @ 0x1
   319   00002F                     	ds	1
   320   000030                     ??_gpio_pin_direction_initialize:
   321   000030                     gpio_pin_write_logic@logic:
   322                           	callstack 0
   323   000030                     gpio_pin_read_logic@logic:
   324                           	callstack 0
   325   000030                     ___awdiv@divisor:
   326                           	callstack 0
   327   000030                     ___awmod@divisor:
   328                           	callstack 0
   329                           
   330                           ; 2 bytes @ 0x2
   331   000030                     	ds	1
   332   000031                     ??_gpio_pin_write_logic:
   333   000031                     gpio_port_direction_initialize@ret:
   334                           	callstack 0
   335                           
   336                           ; 1 bytes @ 0x3
   337   000031                     	ds	1
   338   000032                     ??_gpio_pin_read_logic:
   339   000032                     gpio_port_direction_initialize@port:
   340                           	callstack 0
   341   000032                     ___awdiv@counter:
   342                           	callstack 0
   343   000032                     ___awmod@counter:
   344                           	callstack 0
   345                           
   346                           ; 1 bytes @ 0x4
   347   000032                     	ds	1
   348   000033                     ___awdiv@sign:
   349                           	callstack 0
   350   000033                     ___awmod@sign:
   351                           	callstack 0
   352                           
   353                           ; 1 bytes @ 0x5
   354   000033                     	ds	1
   355   000034                     ___awdiv@quotient:
   356                           	callstack 0
   357                           
   358                           ; 2 bytes @ 0x6
   359   000034                     	ds	2
   360   000036                     gpio_pin_direction_initialize@ret:
   361                           	callstack 0
   362   000036                     gpio_port_write_logic@logic:
   363                           	callstack 0
   364                           
   365                           ; 1 bytes @ 0x8
   366   000036                     	ds	1
   367   000037                     ??_gpio_port_write_logic:
   368   000037                     gpio_pin_write_logic@ret:
   369                           	callstack 0
   370   000037                     gpio_pin_read_logic@ret:
   371                           	callstack 0
   372   000037                     button_initialize@btn:
   373                           	callstack 0
   374                           
   375                           ; 2 bytes @ 0x9
   376   000037                     	ds	1
   377   000038                     button_read_state@btn:
   378                           	callstack 0
   379   000038                     gpio_pin_initialize@pin_config:
   380                           	callstack 0
   381                           
   382                           ; 2 bytes @ 0xA
   383   000038                     	ds	1
   384   000039                     button_initialize@ret:
   385                           	callstack 0
   386   000039                     gpio_port_write_logic@ret:
   387                           	callstack 0
   388                           
   389                           ; 1 bytes @ 0xB
   390   000039                     	ds	1
   391   00003A                     ??_gpio_pin_initialize:
   392   00003A                     gpio_port_write_logic@port:
   393                           	callstack 0
   394   00003A                     button_read_state@btn_state:
   395                           	callstack 0
   396                           
   397                           ; 2 bytes @ 0xC
   398   00003A                     	ds	1
   399   00003B                     gpio_pin_initialize@ret:
   400                           	callstack 0
   401                           
   402                           ; 1 bytes @ 0xD
   403   00003B                     	ds	1
   404   00003C                     seven_segment_intialize@segment:
   405                           	callstack 0
   406   00003C                     led_intialize@led:
   407                           	callstack 0
   408                           
   409                           ; 2 bytes @ 0xE
   410   00003C                     	ds	1
   411   00003D                     button_read_state@ret:
   412                           	callstack 0
   413                           
   414                           ; 1 bytes @ 0xF
   415   00003D                     	ds	1
   416   00003E                     ??_led_intialize:
   417   00003E                     seven_segment_intialize@ret:
   418                           	callstack 0
   419   00003E                     button_read_state@pin_logic_status:
   420                           	callstack 0
   421                           
   422                           ; 1 bytes @ 0x10
   423   00003E                     	ds	1
   424   00003F                     led_intialize@ret:
   425                           	callstack 0
   426                           
   427                           ; 1 bytes @ 0x11
   428   00003F                     	ds	1
   429   000040                     led_intialize@pin_obj:
   430                           	callstack 0
   431                           
   432                           ; 1 bytes @ 0x12
   433   000040                     	ds	1
   434   000041                     ??_main:
   435                           
   436                           ; 1 bytes @ 0x13
   437   000041                     	ds	1
   438                           
   439 ;;
   440 ;;Main: autosize = 0, tempsize = 1, incstack = 0, save=0
   441 ;;
   442 ;; *************** function _main *****************
   443 ;; Defined at:
   444 ;;		line 18 in file "application.c"
   445 ;; Parameters:    Size  Location     Type
   446 ;;		None
   447 ;; Auto vars:     Size  Location     Type
   448 ;;		None
   449 ;; Return value:  Size  Location     Type
   450 ;;                  2  306[None  ] int 
   451 ;; Registers used:
   452 ;;		wreg, fsr2l, fsr2h, status,2, status,0, prodl, prodh, cstack
   453 ;; Tracked objects:
   454 ;;		On entry : 0/0
   455 ;;		On exit  : 0/0
   456 ;;		Unchanged: 0/0
   457 ;; Data sizes:     COMRAM   BANK0   BANK1   BANK2   BANK3   BANK4   BANK5   BANK6   BANK7   BANK8   BANK9  BANK10  BANK1
      +1  BANK12  BANK13  BANK14  BANK15
   458 ;;      Params:         0       0       0       0       0       0       0       0       0       0       0       0       
      +0       0       0       0       0
   459 ;;      Locals:         0       0       0       0       0       0       0       0       0       0       0       0       
      +0       0       0       0       0
   460 ;;      Temps:          1       0       0       0       0       0       0       0       0       0       0       0       
      +0       0       0       0       0
   461 ;;      Totals:         1       0       0       0       0       0       0       0       0       0       0       0       
      +0       0       0       0       0
   462 ;;Total ram usage:        1 bytes
   463 ;; Hardware stack levels required when called: 5
   464 ;; This function calls:
   465 ;;		___awdiv
   466 ;;		___awmod
   467 ;;		_application_intialize
   468 ;;		_button_read_state
   469 ;;		_gpio_port_write_logic
   470 ;; This function is called by:
   471 ;;		Startup code after reset
   472 ;; This function uses a non-reentrant model
   473 ;;
   474                           
   475                           	psect	text0
   476   001012                     __ptext0:
   477                           	callstack 0
   478   001012                     _main:
   479                           	callstack 26
   480   001012                     
   481                           ;application.c: 19:     application_intialize();
   482   001012  EC2B  F00D         	call	_application_intialize	;wreg free
   483   001016                     l307:
   484                           
   485                           ;application.c: 22:         ret = button_read_state(&hr_btn,&hr_value);
   486   001016  0E2A               	movlw	low _hr_btn
   487   001018  6E38               	movwf	button_read_state@btn^0,c
   488   00101A  0E00               	movlw	high _hr_btn
   489   00101C  6E39               	movwf	(button_read_state@btn+1)^0,c
   490   00101E  0E4B               	movlw	low _hr_value
   491   001020  6E3A               	movwf	button_read_state@btn_state^0,c
   492   001022  0E00               	movlw	high _hr_value
   493   001024  6E3B               	movwf	(button_read_state@btn_state+1)^0,c
   494   001026  EC4E  F00A         	call	_button_read_state	;wreg free
   495   00102A  6E4C               	movwf	_ret^0,c
   496                           
   497                           ;application.c: 23:         ret = button_read_state(&min_btn,&min_value);
   498   00102C  0E27               	movlw	low _min_btn
   499   00102E  6E38               	movwf	button_read_state@btn^0,c
   500   001030  0E00               	movlw	high _min_btn
   501   001032  6E39               	movwf	(button_read_state@btn+1)^0,c
   502   001034  0E4A               	movlw	low _min_value
   503   001036  6E3A               	movwf	button_read_state@btn_state^0,c
   504   001038  0E00               	movlw	high _min_value
   505   00103A  6E3B               	movwf	(button_read_state@btn_state+1)^0,c
   506   00103C  EC4E  F00A         	call	_button_read_state	;wreg free
   507   001040  6E4C               	movwf	_ret^0,c
   508   001042                     
   509                           ;application.c: 25:         if(BUTTON_PRESSED == hr_value){
   510   001042  504B               	movf	_hr_value^0,w,c
   511   001044  A4D8               	btfss	status,2,c
   512   001046  EF27  F008         	goto	u1721
   513   00104A  EF29  F008         	goto	u1720
   514   00104E                     u1721:
   515   00104E  EF2A  F008         	goto	l2336
   516   001052                     u1720:
   517   001052                     
   518                           ;application.c: 27:            hr++;
   519   001052  2A1F               	incf	_hr^0,f,c
   520   001054                     l2336:
   521                           
   522                           ;application.c: 29:          if(BUTTON_PRESSED == min_value){
   523   001054  504A               	movf	_min_value^0,w,c
   524   001056  A4D8               	btfss	status,2,c
   525   001058  EF30  F008         	goto	u1731
   526   00105C  EF32  F008         	goto	u1730
   527   001060                     u1731:
   528   001060  EF35  F008         	goto	l2342
   529   001064                     u1730:
   530   001064                     
   531                           ;application.c: 31:            min++;
   532   001064  2A20               	incf	_min^0,f,c
   533   001066                     
   534                           ;application.c: 32:            sec = 0;
   535   001066  0E00               	movlw	0
   536   001068  6E21               	movwf	_sec^0,c
   537   00106A                     l2342:
   538                           
   539                           ;application.c: 37:         for(counter =0;counter<50;counter++)
   540   00106A  0E00               	movlw	0
   541   00106C  6E42               	movwf	_counter^0,c
   542   00106E                     l2348:
   543                           
   544                           ;application.c: 38: {;application.c: 39:             ret = gpio_port_write_logic(PORTD_I
      +                          NDEX, 0x3E);
   545   00106E  0E3E               	movlw	62
   546   001070  6E36               	movwf	gpio_port_write_logic@logic^0,c
   547   001072  0E03               	movlw	3
   548   001074  EC7E  F00C         	call	_gpio_port_write_logic
   549   001078  6E4C               	movwf	_ret^0,c
   550                           
   551                           ;application.c: 40:             ret = gpio_port_write_logic(PORTC_INDEX, ((uint8) (hr / 
      +                          10)));
   552   00107A  C01F  F02E         	movff	_hr,___awdiv@dividend
   553   00107E  6A2F               	clrf	(___awdiv@dividend+1)^0,c
   554   001080  0E00               	movlw	0
   555   001082  6E31               	movwf	(___awdiv@divisor+1)^0,c
   556   001084  0E0A               	movlw	10
   557   001086  6E30               	movwf	___awdiv@divisor^0,c
   558   001088  ECC3  F00A         	call	___awdiv	;wreg free
   559   00108C  502E               	movf	?___awdiv^0,w,c
   560   00108E  6E36               	movwf	gpio_port_write_logic@logic^0,c
   561   001090  0E02               	movlw	2
   562   001092  EC7E  F00C         	call	_gpio_port_write_logic
   563   001096  6E4C               	movwf	_ret^0,c
   564   001098                     
   565                           ;application.c: 41:             _delay((unsigned long)((3333)*(8000000UL/4000000.0)));
   566   001098  0E09               	movlw	9
   567   00109A  6E41               	movwf	??_main^0,c
   568   00109C  0EA7               	movlw	167
   569   00109E                     u1827:
   570   00109E  2EE8               	decfsz	wreg,f,c
   571   0010A0  D7FE               	bra	u1827
   572   0010A2  2E41               	decfsz	??_main^0,f,c
   573   0010A4  D7FC               	bra	u1827
   574   0010A6  F000               	nop	
   575   0010A8                     
   576                           ;application.c: 43:             ret = gpio_port_write_logic(PORTD_INDEX, 0x3D);
   577   0010A8  0E3D               	movlw	61
   578   0010AA  6E36               	movwf	gpio_port_write_logic@logic^0,c
   579   0010AC  0E03               	movlw	3
   580   0010AE  EC7E  F00C         	call	_gpio_port_write_logic
   581   0010B2  6E4C               	movwf	_ret^0,c
   582   0010B4                     
   583                           ;application.c: 44:             ret = gpio_port_write_logic(PORTC_INDEX, ((uint8) (hr % 
      +                          10)));
   584   0010B4  C01F  F02E         	movff	_hr,___awmod@dividend
   585   0010B8  6A2F               	clrf	(___awmod@dividend+1)^0,c
   586   0010BA  0E00               	movlw	0
   587   0010BC  6E31               	movwf	(___awmod@divisor+1)^0,c
   588   0010BE  0E0A               	movlw	10
   589   0010C0  6E30               	movwf	___awmod@divisor^0,c
   590   0010C2  EC81  F00B         	call	___awmod	;wreg free
   591   0010C6  502E               	movf	?___awmod^0,w,c
   592   0010C8  6E36               	movwf	gpio_port_write_logic@logic^0,c
   593   0010CA  0E02               	movlw	2
   594   0010CC  EC7E  F00C         	call	_gpio_port_write_logic
   595   0010D0  6E4C               	movwf	_ret^0,c
   596   0010D2                     
   597                           ;application.c: 45:             _delay((unsigned long)((3333)*(8000000UL/4000000.0)));
   598   0010D2  0E09               	movlw	9
   599   0010D4  6E41               	movwf	??_main^0,c
   600   0010D6  0EA7               	movlw	167
   601   0010D8                     u1837:
   602   0010D8  2EE8               	decfsz	wreg,f,c
   603   0010DA  D7FE               	bra	u1837
   604   0010DC  2E41               	decfsz	??_main^0,f,c
   605   0010DE  D7FC               	bra	u1837
   606   0010E0  F000               	nop	
   607                           
   608                           ;application.c: 47:             ret = gpio_port_write_logic(PORTD_INDEX, 0x3B);
   609   0010E2  0E3B               	movlw	59
   610   0010E4  6E36               	movwf	gpio_port_write_logic@logic^0,c
   611   0010E6  0E03               	movlw	3
   612   0010E8  EC7E  F00C         	call	_gpio_port_write_logic
   613   0010EC  6E4C               	movwf	_ret^0,c
   614                           
   615                           ;application.c: 48:             ret = gpio_port_write_logic(PORTC_INDEX, ((uint8) (min /
      +                           10)));
   616   0010EE  C020  F02E         	movff	_min,___awdiv@dividend
   617   0010F2  6A2F               	clrf	(___awdiv@dividend+1)^0,c
   618   0010F4  0E00               	movlw	0
   619   0010F6  6E31               	movwf	(___awdiv@divisor+1)^0,c
   620   0010F8  0E0A               	movlw	10
   621   0010FA  6E30               	movwf	___awdiv@divisor^0,c
   622   0010FC  ECC3  F00A         	call	___awdiv	;wreg free
   623   001100  502E               	movf	?___awdiv^0,w,c
   624   001102  6E36               	movwf	gpio_port_write_logic@logic^0,c
   625   001104  0E02               	movlw	2
   626   001106  EC7E  F00C         	call	_gpio_port_write_logic
   627   00110A  6E4C               	movwf	_ret^0,c
   628   00110C                     
   629                           ;application.c: 49:             _delay((unsigned long)((3333)*(8000000UL/4000000.0)));
   630   00110C  0E09               	movlw	9
   631   00110E  6E41               	movwf	??_main^0,c
   632   001110  0EA7               	movlw	167
   633   001112                     u1847:
   634   001112  2EE8               	decfsz	wreg,f,c
   635   001114  D7FE               	bra	u1847
   636   001116  2E41               	decfsz	??_main^0,f,c
   637   001118  D7FC               	bra	u1847
   638   00111A  F000               	nop	
   639   00111C                     
   640                           ;application.c: 51:             ret = gpio_port_write_logic(PORTD_INDEX, 0x37);
   641   00111C  0E37               	movlw	55
   642   00111E  6E36               	movwf	gpio_port_write_logic@logic^0,c
   643   001120  0E03               	movlw	3
   644   001122  EC7E  F00C         	call	_gpio_port_write_logic
   645   001126  6E4C               	movwf	_ret^0,c
   646   001128                     
   647                           ;application.c: 52:             ret = gpio_port_write_logic(PORTC_INDEX, ((uint8) (min %
      +                           10)));
   648   001128  C020  F02E         	movff	_min,___awmod@dividend
   649   00112C  6A2F               	clrf	(___awmod@dividend+1)^0,c
   650   00112E  0E00               	movlw	0
   651   001130  6E31               	movwf	(___awmod@divisor+1)^0,c
   652   001132  0E0A               	movlw	10
   653   001134  6E30               	movwf	___awmod@divisor^0,c
   654   001136  EC81  F00B         	call	___awmod	;wreg free
   655   00113A  502E               	movf	?___awmod^0,w,c
   656   00113C  6E36               	movwf	gpio_port_write_logic@logic^0,c
   657   00113E  0E02               	movlw	2
   658   001140  EC7E  F00C         	call	_gpio_port_write_logic
   659   001144  6E4C               	movwf	_ret^0,c
   660   001146                     
   661                           ;application.c: 53:             _delay((unsigned long)((3333)*(8000000UL/4000000.0)));
   662   001146  0E09               	movlw	9
   663   001148  6E41               	movwf	??_main^0,c
   664   00114A  0EA7               	movlw	167
   665   00114C                     u1857:
   666   00114C  2EE8               	decfsz	wreg,f,c
   667   00114E  D7FE               	bra	u1857
   668   001150  2E41               	decfsz	??_main^0,f,c
   669   001152  D7FC               	bra	u1857
   670   001154  F000               	nop	
   671                           
   672                           ;application.c: 55:             ret = gpio_port_write_logic(PORTD_INDEX, 0x2F);
   673   001156  0E2F               	movlw	47
   674   001158  6E36               	movwf	gpio_port_write_logic@logic^0,c
   675   00115A  0E03               	movlw	3
   676   00115C  EC7E  F00C         	call	_gpio_port_write_logic
   677   001160  6E4C               	movwf	_ret^0,c
   678                           
   679                           ;application.c: 56:             ret = gpio_port_write_logic(PORTC_INDEX, ((uint8) (sec /
      +                           10)));
   680   001162  C021  F02E         	movff	_sec,___awdiv@dividend
   681   001166  6A2F               	clrf	(___awdiv@dividend+1)^0,c
   682   001168  0E00               	movlw	0
   683   00116A  6E31               	movwf	(___awdiv@divisor+1)^0,c
   684   00116C  0E0A               	movlw	10
   685   00116E  6E30               	movwf	___awdiv@divisor^0,c
   686   001170  ECC3  F00A         	call	___awdiv	;wreg free
   687   001174  502E               	movf	?___awdiv^0,w,c
   688   001176  6E36               	movwf	gpio_port_write_logic@logic^0,c
   689   001178  0E02               	movlw	2
   690   00117A  EC7E  F00C         	call	_gpio_port_write_logic
   691   00117E  6E4C               	movwf	_ret^0,c
   692   001180                     
   693                           ;application.c: 57:             _delay((unsigned long)((3333)*(8000000UL/4000000.0)));
   694   001180  0E09               	movlw	9
   695   001182  6E41               	movwf	??_main^0,c
   696   001184  0EA7               	movlw	167
   697   001186                     u1867:
   698   001186  2EE8               	decfsz	wreg,f,c
   699   001188  D7FE               	bra	u1867
   700   00118A  2E41               	decfsz	??_main^0,f,c
   701   00118C  D7FC               	bra	u1867
   702   00118E  F000               	nop	
   703   001190                     
   704                           ;application.c: 59:             ret = gpio_port_write_logic(PORTD_INDEX, 0x1F);
   705   001190  0E1F               	movlw	31
   706   001192  6E36               	movwf	gpio_port_write_logic@logic^0,c
   707   001194  0E03               	movlw	3
   708   001196  EC7E  F00C         	call	_gpio_port_write_logic
   709   00119A  6E4C               	movwf	_ret^0,c
   710   00119C                     
   711                           ;application.c: 60:             ret = gpio_port_write_logic(PORTC_INDEX, ((uint8) (sec %
      +                           10)));
   712   00119C  C021  F02E         	movff	_sec,___awmod@dividend
   713   0011A0  6A2F               	clrf	(___awmod@dividend+1)^0,c
   714   0011A2  0E00               	movlw	0
   715   0011A4  6E31               	movwf	(___awmod@divisor+1)^0,c
   716   0011A6  0E0A               	movlw	10
   717   0011A8  6E30               	movwf	___awmod@divisor^0,c
   718   0011AA  EC81  F00B         	call	___awmod	;wreg free
   719   0011AE  502E               	movf	?___awmod^0,w,c
   720   0011B0  6E36               	movwf	gpio_port_write_logic@logic^0,c
   721   0011B2  0E02               	movlw	2
   722   0011B4  EC7E  F00C         	call	_gpio_port_write_logic
   723   0011B8  6E4C               	movwf	_ret^0,c
   724   0011BA                     
   725                           ;application.c: 61:             _delay((unsigned long)((3333)*(8000000UL/4000000.0)));
   726   0011BA  0E09               	movlw	9
   727   0011BC  6E41               	movwf	??_main^0,c
   728   0011BE  0EA7               	movlw	167
   729   0011C0                     u1877:
   730   0011C0  2EE8               	decfsz	wreg,f,c
   731   0011C2  D7FE               	bra	u1877
   732   0011C4  2E41               	decfsz	??_main^0,f,c
   733   0011C6  D7FC               	bra	u1877
   734   0011C8  F000               	nop	
   735   0011CA                     
   736                           ;application.c: 62:         }
   737   0011CA  2A42               	incf	_counter^0,f,c
   738   0011CC  0E31               	movlw	49
   739   0011CE  6442               	cpfsgt	_counter^0,c
   740   0011D0  EFEC  F008         	goto	u1741
   741   0011D4  EFEE  F008         	goto	u1740
   742   0011D8                     u1741:
   743   0011D8  EF37  F008         	goto	l2348
   744   0011DC                     u1740:
   745   0011DC                     
   746                           ;application.c: 65:         sec++;
   747   0011DC  2A21               	incf	_sec^0,f,c
   748   0011DE                     
   749                           ;application.c: 66:         if(sec==60){
   750   0011DE  0E3C               	movlw	60
   751   0011E0  1821               	xorwf	_sec^0,w,c
   752   0011E2  A4D8               	btfss	status,2,c
   753   0011E4  EFF6  F008         	goto	u1751
   754   0011E8  EFF8  F008         	goto	u1750
   755   0011EC                     u1751:
   756   0011EC  EFFB  F008         	goto	l2386
   757   0011F0                     u1750:
   758   0011F0                     
   759                           ;application.c: 67:             min++;
   760   0011F0  2A20               	incf	_min^0,f,c
   761   0011F2                     
   762                           ;application.c: 68:             sec=0;
   763   0011F2  0E00               	movlw	0
   764   0011F4  6E21               	movwf	_sec^0,c
   765   0011F6                     l2386:
   766                           
   767                           ;application.c: 70:         if(min==60){
   768   0011F6  0E3C               	movlw	60
   769   0011F8  1820               	xorwf	_min^0,w,c
   770   0011FA  A4D8               	btfss	status,2,c
   771   0011FC  EF02  F009         	goto	u1761
   772   001200  EF04  F009         	goto	u1760
   773   001204                     u1761:
   774   001204  EF07  F009         	goto	l2392
   775   001208                     u1760:
   776   001208                     
   777                           ;application.c: 71:             hr++;
   778   001208  2A1F               	incf	_hr^0,f,c
   779   00120A                     
   780                           ;application.c: 72:             min=0;
   781   00120A  0E00               	movlw	0
   782   00120C  6E20               	movwf	_min^0,c
   783   00120E                     l2392:
   784                           
   785                           ;application.c: 74:         if(hr==24)
   786   00120E  0E18               	movlw	24
   787   001210  181F               	xorwf	_hr^0,w,c
   788   001212  A4D8               	btfss	status,2,c
   789   001214  EF0E  F009         	goto	u1771
   790   001218  EF10  F009         	goto	u1770
   791   00121C                     u1771:
   792   00121C  EF0B  F008         	goto	l307
   793   001220                     u1770:
   794   001220                     
   795                           ;application.c: 75:         {;application.c: 76:             hr=0;
   796   001220  0E00               	movlw	0
   797   001222  6E1F               	movwf	_hr^0,c
   798   001224  EF0B  F008         	goto	l307
   799   001228  EF00  F000         	goto	start
   800   00122C                     __end_of_main:
   801                           	callstack 0
   802                           
   803 ;; *************** function _gpio_port_write_logic *****************
   804 ;; Defined at:
   805 ;;		line 157 in file "MCAL_Layer/GPIO/hal_gpio.c"
   806 ;; Parameters:    Size  Location     Type
   807 ;;  port            1    wreg     enum E2819
   808 ;;  logic           1    8[COMRAM] unsigned char 
   809 ;; Auto vars:     Size  Location     Type
   810 ;;  port            1   12[COMRAM] enum E2819
   811 ;;  ret             1   11[COMRAM] unsigned char 
   812 ;; Return value:  Size  Location     Type
   813 ;;                  1    wreg      unsigned char 
   814 ;; Registers used:
   815 ;;		wreg, fsr2l, fsr2h, status,2, status,0, prodl, prodh
   816 ;; Tracked objects:
   817 ;;		On entry : 0/0
   818 ;;		On exit  : 0/0
   819 ;;		Unchanged: 0/0
   820 ;; Data sizes:     COMRAM   BANK0   BANK1   BANK2   BANK3   BANK4   BANK5   BANK6   BANK7   BANK8   BANK9  BANK10  BANK1
      +1  BANK12  BANK13  BANK14  BANK15
   821 ;;      Params:         1       0       0       0       0       0       0       0       0       0       0       0       
      +0       0       0       0       0
   822 ;;      Locals:         2       0       0       0       0       0       0       0       0       0       0       0       
      +0       0       0       0       0
   823 ;;      Temps:          2       0       0       0       0       0       0       0       0       0       0       0       
      +0       0       0       0       0
   824 ;;      Totals:         5       0       0       0       0       0       0       0       0       0       0       0       
      +0       0       0       0       0
   825 ;;Total ram usage:        5 bytes
   826 ;; Hardware stack levels used: 1
   827 ;; This function calls:
   828 ;;		Nothing
   829 ;; This function is called by:
   830 ;;		_main
   831 ;; This function uses a non-reentrant model
   832 ;;
   833                           
   834                           	psect	text1
   835   0018FC                     __ptext1:
   836                           	callstack 0
   837   0018FC                     _gpio_port_write_logic:
   838                           	callstack 30
   839                           
   840                           ;incstack = 0
   841                           ;gpio_port_write_logic@port stored from wreg
   842   0018FC  6E3A               	movwf	gpio_port_write_logic@port^0,c
   843   0018FE                     
   844                           ;MCAL_Layer/GPIO/hal_gpio.c: 157: Std_ReturnType gpio_port_write_logic(port_index_t port
      +                          ,uint8 logic);MCAL_Layer/GPIO/hal_gpio.c: 158: {;MCAL_Layer/GPIO/hal_gpio.c: 159:     St
      +                          d_ReturnType ret = (Std_ReturnType)0x01;
   845   0018FE  0E01               	movlw	1
   846   001900  6E39               	movwf	gpio_port_write_logic@ret^0,c
   847   001902                     
   848                           ;MCAL_Layer/GPIO/hal_gpio.c: 160:     if (port > 5 - 1) {
   849   001902  0E04               	movlw	4
   850   001904  643A               	cpfsgt	gpio_port_write_logic@port^0,c
   851   001906  EF87  F00C         	goto	u1341
   852   00190A  EF89  F00C         	goto	u1340
   853   00190E                     u1341:
   854   00190E  EF8D  F00C         	goto	l2030
   855   001912                     u1340:
   856   001912                     
   857                           ;MCAL_Layer/GPIO/hal_gpio.c: 161:         ret = (Std_ReturnType)0x00;
   858   001912  0E00               	movlw	0
   859   001914  6E39               	movwf	gpio_port_write_logic@ret^0,c
   860                           
   861                           ;MCAL_Layer/GPIO/hal_gpio.c: 162:     } else {
   862   001916  EF9F  F00C         	goto	l2032
   863   00191A                     l2030:
   864                           
   865                           ;MCAL_Layer/GPIO/hal_gpio.c: 163:         *lat_reg[port] = logic;
   866   00191A  503A               	movf	gpio_port_write_logic@port^0,w,c
   867   00191C  0D02               	mullw	2
   868   00191E  0E0B               	movlw	low _lat_reg
   869   001920  24F3               	addwf	243,w,c
   870   001922  6ED9               	movwf	fsr2l,c
   871   001924  0E00               	movlw	high _lat_reg
   872   001926  20F4               	addwfc	prodh,w,c
   873   001928  6EDA               	movwf	fsr2h,c
   874   00192A  CFDE F037          	movff	postinc2,??_gpio_port_write_logic
   875   00192E  CFDD F038          	movff	postdec2,??_gpio_port_write_logic+1
   876   001932  C037  FFD9         	movff	??_gpio_port_write_logic,fsr2l
   877   001936  C038  FFDA         	movff	??_gpio_port_write_logic+1,fsr2h
   878   00193A  C036  FFDF         	movff	gpio_port_write_logic@logic,indf2
   879   00193E                     l2032:
   880                           
   881                           ;MCAL_Layer/GPIO/hal_gpio.c: 165:     return ret;
   882   00193E  5039               	movf	gpio_port_write_logic@ret^0,w,c
   883   001940  0012               	return		;funcret
   884   001942                     __end_of_gpio_port_write_logic:
   885                           	callstack 0
   886                           
   887 ;; *************** function _button_read_state *****************
   888 ;; Defined at:
   889 ;;		line 16 in file "ECU_Layer/button/button.c"
   890 ;; Parameters:    Size  Location     Type
   891 ;;  btn             2   10[COMRAM] PTR const struct .
   892 ;;		 -> min_btn(3), hr_btn(3), 
   893 ;;  btn_state       2   12[COMRAM] PTR enum E2861
   894 ;;		 -> min_value(1), hr_value(1), 
   895 ;; Auto vars:     Size  Location     Type
   896 ;;  pin_logic_st    1   16[COMRAM] enum E2805
   897 ;;  ret             1   15[COMRAM] unsigned char 
   898 ;; Return value:  Size  Location     Type
   899 ;;                  1    wreg      unsigned char 
   900 ;; Registers used:
   901 ;;		wreg, fsr2l, fsr2h, status,2, status,0, prodl, prodh, cstack
   902 ;; Tracked objects:
   903 ;;		On entry : 0/0
   904 ;;		On exit  : 0/0
   905 ;;		Unchanged: 0/0
   906 ;; Data sizes:     COMRAM   BANK0   BANK1   BANK2   BANK3   BANK4   BANK5   BANK6   BANK7   BANK8   BANK9  BANK10  BANK1
      +1  BANK12  BANK13  BANK14  BANK15
   907 ;;      Params:         4       0       0       0       0       0       0       0       0       0       0       0       
      +0       0       0       0       0
   908 ;;      Locals:         2       0       0       0       0       0       0       0       0       0       0       0       
      +0       0       0       0       0
   909 ;;      Temps:          1       0       0       0       0       0       0       0       0       0       0       0       
      +0       0       0       0       0
   910 ;;      Totals:         7       0       0       0       0       0       0       0       0       0       0       0       
      +0       0       0       0       0
   911 ;;Total ram usage:        7 bytes
   912 ;; Hardware stack levels used: 1
   913 ;; Hardware stack levels required when called: 1
   914 ;; This function calls:
   915 ;;		_gpio_pin_read_logic
   916 ;; This function is called by:
   917 ;;		_main
   918 ;; This function uses a non-reentrant model
   919 ;;
   920                           
   921                           	psect	text2
   922   00149C                     __ptext2:
   923                           	callstack 0
   924   00149C                     _button_read_state:
   925                           	callstack 29
   926   00149C                     
   927                           ;ECU_Layer/button/button.c: 18:     logic_t pin_logic_status = GPIO_LOGIC_LOW;
   928   00149C  0E00               	movlw	0
   929   00149E  6E3E               	movwf	button_read_state@pin_logic_status^0,c
   930   0014A0                     
   931                           ;ECU_Layer/button/button.c: 19:     if ((((void*)0) == btn) || (((void*)0) == btn_state)
      +                          ) {
   932   0014A0  5038               	movf	button_read_state@btn^0,w,c
   933   0014A2  1039               	iorwf	(button_read_state@btn+1)^0,w,c
   934   0014A4  B4D8               	btfsc	status,2,c
   935   0014A6  EF57  F00A         	goto	u1261
   936   0014AA  EF59  F00A         	goto	u1260
   937   0014AE                     u1261:
   938   0014AE  EF62  F00A         	goto	l1996
   939   0014B2                     u1260:
   940   0014B2  503A               	movf	button_read_state@btn_state^0,w,c
   941   0014B4  103B               	iorwf	(button_read_state@btn_state+1)^0,w,c
   942   0014B6  A4D8               	btfss	status,2,c
   943   0014B8  EF60  F00A         	goto	u1271
   944   0014BC  EF62  F00A         	goto	u1270
   945   0014C0                     u1271:
   946   0014C0  EF66  F00A         	goto	l1998
   947   0014C4                     u1270:
   948   0014C4                     l1996:
   949                           
   950                           ;ECU_Layer/button/button.c: 20:         ret = (Std_ReturnType)0x00;
   951   0014C4  0E00               	movlw	0
   952   0014C6  6E3D               	movwf	button_read_state@ret^0,c
   953                           
   954                           ;ECU_Layer/button/button.c: 21:     } else {
   955   0014C8  EFC1  F00A         	goto	l31
   956   0014CC                     l1998:
   957                           
   958                           ;ECU_Layer/button/button.c: 22:         gpio_pin_read_logic(&(btn->button_pin), &pin_log
      +                          ic_status);
   959   0014CC  C038  F02E         	movff	button_read_state@btn,gpio_pin_read_logic@pin_config
   960   0014D0  C039  F02F         	movff	button_read_state@btn+1,gpio_pin_read_logic@pin_config+1
   961   0014D4  0E3E               	movlw	low button_read_state@pin_logic_status
   962   0014D6  6E30               	movwf	gpio_pin_read_logic@logic^0,c
   963   0014D8  0E00               	movlw	high button_read_state@pin_logic_status
   964   0014DA  6E31               	movwf	(gpio_pin_read_logic@logic+1)^0,c
   965   0014DC  EC25  F00B         	call	_gpio_pin_read_logic	;wreg free
   966   0014E0                     
   967                           ;ECU_Layer/button/button.c: 23:         if (BUTTON_ACTIVE_HIGH == btn->button_active) {
   968   0014E0  EE20 F002          	lfsr	2,2
   969   0014E4  5038               	movf	button_read_state@btn^0,w,c
   970   0014E6  26D9               	addwf	fsr2l,f,c
   971   0014E8  5039               	movf	(button_read_state@btn+1)^0,w,c
   972   0014EA  22DA               	addwfc	fsr2h,f,c
   973   0014EC  50DF               	movf	indf2,w,c
   974   0014EE  A4D8               	btfss	status,2,c
   975   0014F0  EF7C  F00A         	goto	u1281
   976   0014F4  EF7E  F00A         	goto	u1280
   977   0014F8                     u1281:
   978   0014F8  EF9D  F00A         	goto	l2010
   979   0014FC                     u1280:
   980   0014FC                     
   981                           ;ECU_Layer/button/button.c: 24:             if (GPIO_LOGIC_HIGH == pin_logic_status) {
   982   0014FC  043E               	decf	button_read_state@pin_logic_status^0,w,c
   983   0014FE  A4D8               	btfss	status,2,c
   984   001500  EF84  F00A         	goto	u1291
   985   001504  EF86  F00A         	goto	u1290
   986   001508                     u1291:
   987   001508  EF8D  F00A         	goto	l2006
   988   00150C                     u1290:
   989   00150C                     l2004:
   990                           
   991                           ;ECU_Layer/button/button.c: 25:                 *btn_state = BUTTON_PRESSED;
   992   00150C  C03A  FFD9         	movff	button_read_state@btn_state,fsr2l
   993   001510  C03B  FFDA         	movff	button_read_state@btn_state+1,fsr2h
   994   001514  6ADF               	clrf	indf2,c
   995                           
   996                           ;ECU_Layer/button/button.c: 26:             } else if (GPIO_LOGIC_LOW == pin_logic_statu
      +                          s) {
   997   001516  EFBF  F00A         	goto	l2020
   998   00151A                     l2006:
   999   00151A  503E               	movf	button_read_state@pin_logic_status^0,w,c
  1000   00151C  A4D8               	btfss	status,2,c
  1001   00151E  EF93  F00A         	goto	u1301
  1002   001522  EF95  F00A         	goto	u1300
  1003   001526                     u1301:
  1004   001526  EFBF  F00A         	goto	l2020
  1005   00152A                     u1300:
  1006   00152A                     l2008:
  1007                           
  1008                           ;ECU_Layer/button/button.c: 27:                 *btn_state = BUTTON_RELEASED;
  1009   00152A  C03A  FFD9         	movff	button_read_state@btn_state,fsr2l
  1010   00152E  C03B  FFDA         	movff	button_read_state@btn_state+1,fsr2h
  1011   001532  0E01               	movlw	1
  1012   001534  6EDF               	movwf	indf2,c
  1013   001536  EFBF  F00A         	goto	l2020
  1014   00153A                     l2010:
  1015   00153A  EE20 F002          	lfsr	2,2
  1016   00153E  5038               	movf	button_read_state@btn^0,w,c
  1017   001540  26D9               	addwf	fsr2l,f,c
  1018   001542  5039               	movf	(button_read_state@btn+1)^0,w,c
  1019   001544  22DA               	addwfc	fsr2h,f,c
  1020   001546  04DE               	decf	postinc2,w,c
  1021   001548  A4D8               	btfss	status,2,c
  1022   00154A  EFA9  F00A         	goto	u1311
  1023   00154E  EFAB  F00A         	goto	u1310
  1024   001552                     u1311:
  1025   001552  EFBF  F00A         	goto	l2020
  1026   001556                     u1310:
  1027   001556                     
  1028                           ;ECU_Layer/button/button.c: 30:             if (GPIO_LOGIC_LOW == pin_logic_status) {
  1029   001556  503E               	movf	button_read_state@pin_logic_status^0,w,c
  1030   001558  A4D8               	btfss	status,2,c
  1031   00155A  EFB1  F00A         	goto	u1321
  1032   00155E  EFB3  F00A         	goto	u1320
  1033   001562                     u1321:
  1034   001562  EFB5  F00A         	goto	l2016
  1035   001566                     u1320:
  1036   001566  EF86  F00A         	goto	l2004
  1037   00156A                     l2016:
  1038   00156A  043E               	decf	button_read_state@pin_logic_status^0,w,c
  1039   00156C  A4D8               	btfss	status,2,c
  1040   00156E  EFBB  F00A         	goto	u1331
  1041   001572  EFBD  F00A         	goto	u1330
  1042   001576                     u1331:
  1043   001576  EFBF  F00A         	goto	l2020
  1044   00157A                     u1330:
  1045   00157A  EF95  F00A         	goto	l2008
  1046   00157E                     l2020:
  1047                           
  1048                           ;ECU_Layer/button/button.c: 40:         ret = (Std_ReturnType)0x01;
  1049   00157E  0E01               	movlw	1
  1050   001580  6E3D               	movwf	button_read_state@ret^0,c
  1051   001582                     l31:
  1052                           
  1053                           ;ECU_Layer/button/button.c: 44:     return ret;
  1054   001582  503D               	movf	button_read_state@ret^0,w,c
  1055   001584  0012               	return		;funcret
  1056   001586                     __end_of_button_read_state:
  1057                           	callstack 0
  1058                           
  1059 ;; *************** function _gpio_pin_read_logic *****************
  1060 ;; Defined at:
  1061 ;;		line 71 in file "MCAL_Layer/GPIO/hal_gpio.c"
  1062 ;; Parameters:    Size  Location     Type
  1063 ;;  pin_config      2    0[COMRAM] PTR const struct .
  1064 ;;		 -> min_btn(3), hr_btn(3), 
  1065 ;;  logic           2    2[COMRAM] PTR enum E2805
  1066 ;;		 -> keypad_get_value@column_value(1), button_read_state@pin_logic_status(1), 
  1067 ;; Auto vars:     Size  Location     Type
  1068 ;;  ret             1    9[COMRAM] unsigned char 
  1069 ;; Return value:  Size  Location     Type
  1070 ;;                  1    wreg      unsigned char 
  1071 ;; Registers used:
  1072 ;;		wreg, fsr2l, fsr2h, status,2, status,0, prodl, prodh
  1073 ;; Tracked objects:
  1074 ;;		On entry : 0/0
  1075 ;;		On exit  : 0/0
  1076 ;;		Unchanged: 0/0
  1077 ;; Data sizes:     COMRAM   BANK0   BANK1   BANK2   BANK3   BANK4   BANK5   BANK6   BANK7   BANK8   BANK9  BANK10  BANK1
      +1  BANK12  BANK13  BANK14  BANK15
  1078 ;;      Params:         4       0       0       0       0       0       0       0       0       0       0       0       
      +0       0       0       0       0
  1079 ;;      Locals:         1       0       0       0       0       0       0       0       0       0       0       0       
      +0       0       0       0       0
  1080 ;;      Temps:          5       0       0       0       0       0       0       0       0       0       0       0       
      +0       0       0       0       0
  1081 ;;      Totals:        10       0       0       0       0       0       0       0       0       0       0       0       
      +0       0       0       0       0
  1082 ;;Total ram usage:       10 bytes
  1083 ;; Hardware stack levels used: 1
  1084 ;; This function calls:
  1085 ;;		Nothing
  1086 ;; This function is called by:
  1087 ;;		_button_read_state
  1088 ;;		_keypad_get_value
  1089 ;; This function uses a non-reentrant model
  1090 ;;
  1091                           
  1092                           	psect	text3
  1093   00164A                     __ptext3:
  1094                           	callstack 0
  1095   00164A                     _gpio_pin_read_logic:
  1096                           	callstack 29
  1097   00164A                     
  1098                           ;MCAL_Layer/GPIO/hal_gpio.c: 71: Std_ReturnType gpio_pin_read_logic(const pin_config_t *
      +                          pin_config, logic_t *logic);MCAL_Layer/GPIO/hal_gpio.c: 72: {;MCAL_Layer/GPIO/hal_gpio.c
      +                          : 73:     Std_ReturnType ret = (Std_ReturnType)0x01;
  1099   00164A  0E01               	movlw	1
  1100   00164C  6E37               	movwf	gpio_pin_read_logic@ret^0,c
  1101   00164E                     
  1102                           ;MCAL_Layer/GPIO/hal_gpio.c: 74:     if(((void*)0) == pin_config || ((void*)0) == logic 
      +                          || pin_config->pin > 8 -1)
  1103   00164E  502E               	movf	gpio_pin_read_logic@pin_config^0,w,c
  1104   001650  102F               	iorwf	(gpio_pin_read_logic@pin_config+1)^0,w,c
  1105   001652  B4D8               	btfsc	status,2,c
  1106   001654  EF2E  F00B         	goto	u1221
  1107   001658  EF30  F00B         	goto	u1220
  1108   00165C                     u1221:
  1109   00165C  EF4A  F00B         	goto	l1970
  1110   001660                     u1220:
  1111   001660  5030               	movf	gpio_pin_read_logic@logic^0,w,c
  1112   001662  1031               	iorwf	(gpio_pin_read_logic@logic+1)^0,w,c
  1113   001664  B4D8               	btfsc	status,2,c
  1114   001666  EF37  F00B         	goto	u1231
  1115   00166A  EF39  F00B         	goto	u1230
  1116   00166E                     u1231:
  1117   00166E  EF4A  F00B         	goto	l1970
  1118   001672                     u1230:
  1119   001672  C02E  FFD9         	movff	gpio_pin_read_logic@pin_config,fsr2l
  1120   001676  C02F  FFDA         	movff	gpio_pin_read_logic@pin_config+1,fsr2h
  1121   00167A  30DF               	rrcf	223,w,c
  1122   00167C  32E8               	rrcf	wreg,f,c
  1123   00167E  32E8               	rrcf	wreg,f,c
  1124   001680  0B07               	andlw	7
  1125   001682  6E32               	movwf	??_gpio_pin_read_logic^0,c
  1126   001684  0E07               	movlw	7
  1127   001686  6432               	cpfsgt	??_gpio_pin_read_logic^0,c
  1128   001688  EF48  F00B         	goto	u1241
  1129   00168C  EF4A  F00B         	goto	u1240
  1130   001690                     u1241:
  1131   001690  EF4E  F00B         	goto	l1972
  1132   001694                     u1240:
  1133   001694                     l1970:
  1134                           
  1135                           ;MCAL_Layer/GPIO/hal_gpio.c: 75:     {;MCAL_Layer/GPIO/hal_gpio.c: 76:         ret = (St
      +                          d_ReturnType)0x00;
  1136   001694  0E00               	movlw	0
  1137   001696  6E37               	movwf	gpio_pin_read_logic@ret^0,c
  1138                           
  1139                           ;MCAL_Layer/GPIO/hal_gpio.c: 77:     }
  1140   001698  EF7F  F00B         	goto	l1974
  1141   00169C                     l1972:
  1142                           
  1143                           ;MCAL_Layer/GPIO/hal_gpio.c: 79:     {;MCAL_Layer/GPIO/hal_gpio.c: 80:         *logic = 
      +                          ((*port_reg[pin_config->port] >> pin_config->pin) & (uint8)1);
  1144   00169C  C02E  FFD9         	movff	gpio_pin_read_logic@pin_config,fsr2l
  1145   0016A0  C02F  FFDA         	movff	gpio_pin_read_logic@pin_config+1,fsr2h
  1146   0016A4  30DF               	rrcf	223,w,c
  1147   0016A6  32E8               	rrcf	wreg,f,c
  1148   0016A8  32E8               	rrcf	wreg,f,c
  1149   0016AA  0B07               	andlw	7
  1150   0016AC  6E32               	movwf	??_gpio_pin_read_logic^0,c
  1151   0016AE  C02E  FFD9         	movff	gpio_pin_read_logic@pin_config,fsr2l
  1152   0016B2  C02F  FFDA         	movff	gpio_pin_read_logic@pin_config+1,fsr2h
  1153   0016B6  50DF               	movf	223,w,c
  1154   0016B8  0B07               	andlw	7
  1155   0016BA  6E33               	movwf	(??_gpio_pin_read_logic+1)^0,c
  1156   0016BC  5033               	movf	(??_gpio_pin_read_logic+1)^0,w,c
  1157   0016BE  0D02               	mullw	2
  1158   0016C0  0E01               	movlw	low _port_reg
  1159   0016C2  24F3               	addwf	243,w,c
  1160   0016C4  6ED9               	movwf	fsr2l,c
  1161   0016C6  0E00               	movlw	high _port_reg
  1162   0016C8  20F4               	addwfc	prodh,w,c
  1163   0016CA  6EDA               	movwf	fsr2h,c
  1164   0016CC  CFDE F034          	movff	postinc2,??_gpio_pin_read_logic+2
  1165   0016D0  CFDD F035          	movff	postdec2,??_gpio_pin_read_logic+3
  1166   0016D4  C034  FFD9         	movff	??_gpio_pin_read_logic+2,fsr2l
  1167   0016D8  C035  FFDA         	movff	??_gpio_pin_read_logic+3,fsr2h
  1168   0016DC  50DF               	movf	indf2,w,c
  1169   0016DE  6E36               	movwf	(??_gpio_pin_read_logic+4)^0,c
  1170   0016E0  2A32               	incf	??_gpio_pin_read_logic^0,f,c
  1171   0016E2  EF75  F00B         	goto	u1254
  1172   0016E6                     u1255:
  1173   0016E6  90D8               	bcf	status,0,c
  1174   0016E8  3236               	rrcf	(??_gpio_pin_read_logic+4)^0,f,c
  1175   0016EA                     u1254:
  1176   0016EA  2E32               	decfsz	??_gpio_pin_read_logic^0,f,c
  1177   0016EC  EF73  F00B         	goto	u1255
  1178   0016F0  5036               	movf	(??_gpio_pin_read_logic+4)^0,w,c
  1179   0016F2  0B01               	andlw	1
  1180   0016F4  C030  FFD9         	movff	gpio_pin_read_logic@logic,fsr2l
  1181   0016F8  C031  FFDA         	movff	gpio_pin_read_logic@logic+1,fsr2h
  1182   0016FC  6EDF               	movwf	indf2,c
  1183   0016FE                     l1974:
  1184                           
  1185                           ;MCAL_Layer/GPIO/hal_gpio.c: 82:     return ret;
  1186   0016FE  5037               	movf	gpio_pin_read_logic@ret^0,w,c
  1187   001700  0012               	return		;funcret
  1188   001702                     __end_of_gpio_pin_read_logic:
  1189                           	callstack 0
  1190                           
  1191 ;; *************** function _application_intialize *****************
  1192 ;; Defined at:
  1193 ;;		line 88 in file "application.c"
  1194 ;; Parameters:    Size  Location     Type
  1195 ;;		None
  1196 ;; Auto vars:     Size  Location     Type
  1197 ;;  ret             1    0        unsigned char 
  1198 ;; Return value:  Size  Location     Type
  1199 ;;                  1    wreg      void 
  1200 ;; Registers used:
  1201 ;;		wreg, fsr2l, fsr2h, status,2, status,0, prodl, prodh, cstack
  1202 ;; Tracked objects:
  1203 ;;		On entry : 0/0
  1204 ;;		On exit  : 0/0
  1205 ;;		Unchanged: 0/0
  1206 ;; Data sizes:     COMRAM   BANK0   BANK1   BANK2   BANK3   BANK4   BANK5   BANK6   BANK7   BANK8   BANK9  BANK10  BANK1
      +1  BANK12  BANK13  BANK14  BANK15
  1207 ;;      Params:         0       0       0       0       0       0       0       0       0       0       0       0       
      +0       0       0       0       0
  1208 ;;      Locals:         0       0       0       0       0       0       0       0       0       0       0       0       
      +0       0       0       0       0
  1209 ;;      Temps:          0       0       0       0       0       0       0       0       0       0       0       0       
      +0       0       0       0       0
  1210 ;;      Totals:         0       0       0       0       0       0       0       0       0       0       0       0       
      +0       0       0       0       0
  1211 ;;Total ram usage:        0 bytes
  1212 ;; Hardware stack levels used: 1
  1213 ;; Hardware stack levels required when called: 4
  1214 ;; This function calls:
  1215 ;;		_ecu_layer_intialize
  1216 ;; This function is called by:
  1217 ;;		_main
  1218 ;; This function uses a non-reentrant model
  1219 ;;
  1220                           
  1221                           	psect	text4
  1222   001A56                     __ptext4:
  1223                           	callstack 0
  1224   001A56                     _application_intialize:
  1225                           	callstack 26
  1226   001A56                     
  1227                           ;application.c: 90:     ecu_layer_intialize();
  1228   001A56  ECC4  F00C         	call	_ecu_layer_intialize	;wreg free
  1229   001A5A  0012               	return		;funcret
  1230   001A5C                     __end_of_application_intialize:
  1231                           	callstack 0
  1232                           
  1233 ;; *************** function _ecu_layer_intialize *****************
  1234 ;; Defined at:
  1235 ;;		line 56 in file "ECU_Layer/ecu_layer_init.c"
  1236 ;; Parameters:    Size  Location     Type
  1237 ;;		None
  1238 ;; Auto vars:     Size  Location     Type
  1239 ;;  ret             1    0        unsigned char 
  1240 ;; Return value:  Size  Location     Type
  1241 ;;                  1    wreg      void 
  1242 ;; Registers used:
  1243 ;;		wreg, fsr2l, fsr2h, status,2, status,0, prodl, prodh, cstack
  1244 ;; Tracked objects:
  1245 ;;		On entry : 0/0
  1246 ;;		On exit  : 0/0
  1247 ;;		Unchanged: 0/0
  1248 ;; Data sizes:     COMRAM   BANK0   BANK1   BANK2   BANK3   BANK4   BANK5   BANK6   BANK7   BANK8   BANK9  BANK10  BANK1
      +1  BANK12  BANK13  BANK14  BANK15
  1249 ;;      Params:         0       0       0       0       0       0       0       0       0       0       0       0       
      +0       0       0       0       0
  1250 ;;      Locals:         0       0       0       0       0       0       0       0       0       0       0       0       
      +0       0       0       0       0
  1251 ;;      Temps:          0       0       0       0       0       0       0       0       0       0       0       0       
      +0       0       0       0       0
  1252 ;;      Totals:         0       0       0       0       0       0       0       0       0       0       0       0       
      +0       0       0       0       0
  1253 ;;Total ram usage:        0 bytes
  1254 ;; Hardware stack levels used: 1
  1255 ;; Hardware stack levels required when called: 3
  1256 ;; This function calls:
  1257 ;;		_button_initialize
  1258 ;;		_gpio_port_direction_initialize
  1259 ;;		_led_intialize
  1260 ;;		_seven_segment_intialize
  1261 ;; This function is called by:
  1262 ;;		_application_intialize
  1263 ;; This function uses a non-reentrant model
  1264 ;;
  1265                           
  1266                           	psect	text5
  1267   001988                     __ptext5:
  1268                           	callstack 0
  1269   001988                     _ecu_layer_intialize:
  1270                           	callstack 26
  1271   001988  0E22               	movlw	low _seven_seg1
  1272   00198A  6E3C               	movwf	seven_segment_intialize@segment^0,c
  1273   00198C  0E00               	movlw	high _seven_seg1
  1274   00198E  6E3D               	movwf	(seven_segment_intialize@segment+1)^0,c
  1275   001990  EC4F  F00C         	call	_seven_segment_intialize	;wreg free
  1276   001994  0EC0               	movlw	192
  1277   001996  6E2E               	movwf	gpio_port_direction_initialize@direction^0,c
  1278   001998  0E03               	movlw	3
  1279   00199A  ECA1  F00C         	call	_gpio_port_direction_initialize
  1280   00199E  0E2A               	movlw	low _hr_btn
  1281   0019A0  6E37               	movwf	button_initialize@btn^0,c
  1282   0019A2  0E00               	movlw	high _hr_btn
  1283   0019A4  6E38               	movwf	(button_initialize@btn+1)^0,c
  1284   0019A6  ECFD  F00C         	call	_button_initialize	;wreg free
  1285   0019AA  0E27               	movlw	low _min_btn
  1286   0019AC  6E37               	movwf	button_initialize@btn^0,c
  1287   0019AE  0E00               	movlw	high _min_btn
  1288   0019B0  6E38               	movwf	(button_initialize@btn+1)^0,c
  1289   0019B2  ECFD  F00C         	call	_button_initialize	;wreg free
  1290   0019B6  0E2D               	movlw	low _led1
  1291   0019B8  6E3C               	movwf	led_intialize@led^0,c
  1292   0019BA  0E00               	movlw	high _led1
  1293   0019BC  6E3D               	movwf	(led_intialize@led+1)^0,c
  1294   0019BE  ECD9  F00B         	call	_led_intialize	;wreg free
  1295   0019C2  0012               	return		;funcret
  1296   0019C4                     __end_of_ecu_layer_intialize:
  1297                           	callstack 0
  1298                           
  1299 ;; *************** function _seven_segment_intialize *****************
  1300 ;; Defined at:
  1301 ;;		line 2 in file "ECU_Layer/7_segments/7_segments.c"
  1302 ;; Parameters:    Size  Location     Type
  1303 ;;  segment         2   14[COMRAM] PTR const struct .
  1304 ;;		 -> seven_seg1(5), 
  1305 ;; Auto vars:     Size  Location     Type
  1306 ;;  ret             1   16[COMRAM] unsigned char 
  1307 ;; Return value:  Size  Location     Type
  1308 ;;                  1    wreg      unsigned char 
  1309 ;; Registers used:
  1310 ;;		wreg, fsr2l, fsr2h, status,2, status,0, prodl, prodh, cstack
  1311 ;; Tracked objects:
  1312 ;;		On entry : 0/0
  1313 ;;		On exit  : 0/0
  1314 ;;		Unchanged: 0/0
  1315 ;; Data sizes:     COMRAM   BANK0   BANK1   BANK2   BANK3   BANK4   BANK5   BANK6   BANK7   BANK8   BANK9  BANK10  BANK1
      +1  BANK12  BANK13  BANK14  BANK15
  1316 ;;      Params:         2       0       0       0       0       0       0       0       0       0       0       0       
      +0       0       0       0       0
  1317 ;;      Locals:         1       0       0       0       0       0       0       0       0       0       0       0       
      +0       0       0       0       0
  1318 ;;      Temps:          0       0       0       0       0       0       0       0       0       0       0       0       
      +0       0       0       0       0
  1319 ;;      Totals:         3       0       0       0       0       0       0       0       0       0       0       0       
      +0       0       0       0       0
  1320 ;;Total ram usage:        3 bytes
  1321 ;; Hardware stack levels used: 1
  1322 ;; Hardware stack levels required when called: 2
  1323 ;; This function calls:
  1324 ;;		_gpio_pin_initialize
  1325 ;; This function is called by:
  1326 ;;		_ecu_layer_intialize
  1327 ;; This function uses a non-reentrant model
  1328 ;;
  1329                           
  1330                           	psect	text6
  1331   00189E                     __ptext6:
  1332                           	callstack 0
  1333   00189E                     _seven_segment_intialize:
  1334                           	callstack 26
  1335   00189E                     
  1336                           ;ECU_Layer/7_segments/7_segments.c: 4: Std_ReturnType ret = (Std_ReturnType)0x01;
  1337   00189E  0E01               	movlw	1
  1338   0018A0  6E3E               	movwf	seven_segment_intialize@ret^0,c
  1339   0018A2                     
  1340                           ;ECU_Layer/7_segments/7_segments.c: 5:     if (((void*)0) == segment) {
  1341   0018A2  503C               	movf	seven_segment_intialize@segment^0,w,c
  1342   0018A4  103D               	iorwf	(seven_segment_intialize@segment+1)^0,w,c
  1343   0018A6  A4D8               	btfss	status,2,c
  1344   0018A8  EF58  F00C         	goto	u1171
  1345   0018AC  EF5A  F00C         	goto	u1170
  1346   0018B0                     u1171:
  1347   0018B0  EF5E  F00C         	goto	l1914
  1348   0018B4                     u1170:
  1349   0018B4                     
  1350                           ;ECU_Layer/7_segments/7_segments.c: 6:         ret = (Std_ReturnType)0x00;
  1351   0018B4  0E00               	movlw	0
  1352   0018B6  6E3E               	movwf	seven_segment_intialize@ret^0,c
  1353                           
  1354                           ;ECU_Layer/7_segments/7_segments.c: 7:     } else {
  1355   0018B8  EF7C  F00C         	goto	l1916
  1356   0018BC                     l1914:
  1357                           
  1358                           ;ECU_Layer/7_segments/7_segments.c: 9:         gpio_pin_initialize(&(segment->segment_pi
      +                          ns[0]));
  1359   0018BC  C03C  F038         	movff	seven_segment_intialize@segment,gpio_pin_initialize@pin_config
  1360   0018C0  C03D  F039         	movff	seven_segment_intialize@segment+1,gpio_pin_initialize@pin_config+1
  1361   0018C4  EC19  F00C         	call	_gpio_pin_initialize	;wreg free
  1362                           
  1363                           ;ECU_Layer/7_segments/7_segments.c: 10:         gpio_pin_initialize(&(segment->segment_p
      +                          ins[1]));
  1364   0018C8  0E01               	movlw	1
  1365   0018CA  243C               	addwf	seven_segment_intialize@segment^0,w,c
  1366   0018CC  6E38               	movwf	gpio_pin_initialize@pin_config^0,c
  1367   0018CE  0E00               	movlw	0
  1368   0018D0  203D               	addwfc	(seven_segment_intialize@segment+1)^0,w,c
  1369   0018D2  6E39               	movwf	(gpio_pin_initialize@pin_config+1)^0,c
  1370   0018D4  EC19  F00C         	call	_gpio_pin_initialize	;wreg free
  1371                           
  1372                           ;ECU_Layer/7_segments/7_segments.c: 11:         gpio_pin_initialize(&(segment->segment_p
      +                          ins[2]));
  1373   0018D8  0E02               	movlw	2
  1374   0018DA  243C               	addwf	seven_segment_intialize@segment^0,w,c
  1375   0018DC  6E38               	movwf	gpio_pin_initialize@pin_config^0,c
  1376   0018DE  0E00               	movlw	0
  1377   0018E0  203D               	addwfc	(seven_segment_intialize@segment+1)^0,w,c
  1378   0018E2  6E39               	movwf	(gpio_pin_initialize@pin_config+1)^0,c
  1379   0018E4  EC19  F00C         	call	_gpio_pin_initialize	;wreg free
  1380                           
  1381                           ;ECU_Layer/7_segments/7_segments.c: 12:         gpio_pin_initialize(&(segment->segment_p
      +                          ins[3]));
  1382   0018E8  0E03               	movlw	3
  1383   0018EA  243C               	addwf	seven_segment_intialize@segment^0,w,c
  1384   0018EC  6E38               	movwf	gpio_pin_initialize@pin_config^0,c
  1385   0018EE  0E00               	movlw	0
  1386   0018F0  203D               	addwfc	(seven_segment_intialize@segment+1)^0,w,c
  1387   0018F2  6E39               	movwf	(gpio_pin_initialize@pin_config+1)^0,c
  1388   0018F4  EC19  F00C         	call	_gpio_pin_initialize	;wreg free
  1389   0018F8                     l1916:
  1390                           
  1391                           ;ECU_Layer/7_segments/7_segments.c: 14:     return ret;
  1392   0018F8  503E               	movf	seven_segment_intialize@ret^0,w,c
  1393   0018FA  0012               	return		;funcret
  1394   0018FC                     __end_of_seven_segment_intialize:
  1395                           	callstack 0
  1396                           
  1397 ;; *************** function _led_intialize *****************
  1398 ;; Defined at:
  1399 ;;		line 3 in file "ECU_Layer/led/led.c"
  1400 ;; Parameters:    Size  Location     Type
  1401 ;;  led             2   14[COMRAM] PTR const struct .
  1402 ;;		 -> led1(1), 
  1403 ;; Auto vars:     Size  Location     Type
  1404 ;;  pin_obj         1   18[COMRAM] struct .
  1405 ;;  ret             1   17[COMRAM] unsigned char 
  1406 ;; Return value:  Size  Location     Type
  1407 ;;                  1    wreg      unsigned char 
  1408 ;; Registers used:
  1409 ;;		wreg, fsr2l, fsr2h, status,2, status,0, prodl, prodh, cstack
  1410 ;; Tracked objects:
  1411 ;;		On entry : 0/0
  1412 ;;		On exit  : 0/0
  1413 ;;		Unchanged: 0/0
  1414 ;; Data sizes:     COMRAM   BANK0   BANK1   BANK2   BANK3   BANK4   BANK5   BANK6   BANK7   BANK8   BANK9  BANK10  BANK1
      +1  BANK12  BANK13  BANK14  BANK15
  1415 ;;      Params:         2       0       0       0       0       0       0       0       0       0       0       0       
      +0       0       0       0       0
  1416 ;;      Locals:         2       0       0       0       0       0       0       0       0       0       0       0       
      +0       0       0       0       0
  1417 ;;      Temps:          1       0       0       0       0       0       0       0       0       0       0       0       
      +0       0       0       0       0
  1418 ;;      Totals:         5       0       0       0       0       0       0       0       0       0       0       0       
      +0       0       0       0       0
  1419 ;;Total ram usage:        5 bytes
  1420 ;; Hardware stack levels used: 1
  1421 ;; Hardware stack levels required when called: 2
  1422 ;; This function calls:
  1423 ;;		_gpio_pin_initialize
  1424 ;; This function is called by:
  1425 ;;		_ecu_layer_intialize
  1426 ;; This function uses a non-reentrant model
  1427 ;;
  1428                           
  1429                           	psect	text7
  1430   0017B2                     __ptext7:
  1431                           	callstack 0
  1432   0017B2                     _led_intialize:
  1433                           	callstack 26
  1434   0017B2                     
  1435                           ;ECU_Layer/led/led.c: 4:     Std_ReturnType ret = (Std_ReturnType)0x01;
  1436   0017B2  0E01               	movlw	1
  1437   0017B4  6E3F               	movwf	led_intialize@ret^0,c
  1438   0017B6                     
  1439                           ;ECU_Layer/led/led.c: 7:     if (((void*)0) == led) {
  1440   0017B6  503C               	movf	led_intialize@led^0,w,c
  1441   0017B8  103D               	iorwf	(led_intialize@led+1)^0,w,c
  1442   0017BA  A4D8               	btfss	status,2,c
  1443   0017BC  EFE2  F00B         	goto	u1191
  1444   0017C0  EFE4  F00B         	goto	u1190
  1445   0017C4                     u1191:
  1446   0017C4  EFE8  F00B         	goto	l108
  1447   0017C8                     u1190:
  1448   0017C8                     
  1449                           ;ECU_Layer/led/led.c: 8:         ret = (Std_ReturnType)0x00;
  1450   0017C8  0E00               	movlw	0
  1451   0017CA  6E3F               	movwf	led_intialize@ret^0,c
  1452                           
  1453                           ;ECU_Layer/led/led.c: 9:     } else {
  1454   0017CC  EF17  F00C         	goto	l1946
  1455   0017D0                     l108:
  1456                           
  1457                           ;ECU_Layer/led/led.c: 10:         pin_config_t pin_obj = {
  1458   0017D0  C049  F040         	movff	led_intialize@F2882,led_intialize@pin_obj
  1459   0017D4  C03C  FFD9         	movff	led_intialize@led,fsr2l
  1460   0017D8  C03D  FFDA         	movff	led_intialize@led+1,fsr2h
  1461   0017DC  50DF               	movf	223,w,c
  1462   0017DE  0B07               	andlw	7
  1463   0017E0  6E3E               	movwf	??_led_intialize^0,c
  1464   0017E2  5040               	movf	led_intialize@pin_obj^0,w,c
  1465   0017E4  183E               	xorwf	??_led_intialize^0,w,c
  1466   0017E6  0BF8               	andlw	-8
  1467   0017E8  183E               	xorwf	??_led_intialize^0,w,c
  1468   0017EA  6E40               	movwf	led_intialize@pin_obj^0,c
  1469   0017EC  C03C  FFD9         	movff	led_intialize@led,fsr2l
  1470   0017F0  C03D  FFDA         	movff	led_intialize@led+1,fsr2h
  1471   0017F4  30DF               	rrcf	223,w,c
  1472   0017F6  32E8               	rrcf	wreg,f,c
  1473   0017F8  32E8               	rrcf	wreg,f,c
  1474   0017FA  0B07               	andlw	7
  1475   0017FC  6E3E               	movwf	??_led_intialize^0,c
  1476   0017FE  463E               	rlncf	??_led_intialize^0,f,c
  1477   001800  463E               	rlncf	??_led_intialize^0,f,c
  1478   001802  463E               	rlncf	??_led_intialize^0,f,c
  1479   001804  5040               	movf	led_intialize@pin_obj^0,w,c
  1480   001806  183E               	xorwf	??_led_intialize^0,w,c
  1481   001808  0BC7               	andlw	-57
  1482   00180A  183E               	xorwf	??_led_intialize^0,w,c
  1483   00180C  6E40               	movwf	led_intialize@pin_obj^0,c
  1484   00180E  9C40               	bcf	led_intialize@pin_obj^0,6,c
  1485   001810  C03C  FFD9         	movff	led_intialize@led,fsr2l
  1486   001814  C03D  FFDA         	movff	led_intialize@led+1,fsr2h
  1487   001818  ACDF               	btfss	indf2,6,c
  1488   00181A  D002               	bra	u1205
  1489   00181C  8E40               	bsf	led_intialize@pin_obj^0,7,c
  1490   00181E  D001               	bra	u1207
  1491   001820                     u1205:
  1492   001820  9E40               	bcf	led_intialize@pin_obj^0,7,c
  1493   001822                     u1207:
  1494   001822                     
  1495                           ;ECU_Layer/led/led.c: 16:         gpio_pin_initialize(&pin_obj);
  1496   001822  0E40               	movlw	low led_intialize@pin_obj
  1497   001824  6E38               	movwf	gpio_pin_initialize@pin_config^0,c
  1498   001826  0E00               	movlw	high led_intialize@pin_obj
  1499   001828  6E39               	movwf	(gpio_pin_initialize@pin_config+1)^0,c
  1500   00182A  EC19  F00C         	call	_gpio_pin_initialize	;wreg free
  1501   00182E                     l1946:
  1502                           
  1503                           ;ECU_Layer/led/led.c: 19:     return ret;
  1504   00182E  503F               	movf	led_intialize@ret^0,w,c
  1505   001830  0012               	return		;funcret
  1506   001832                     __end_of_led_intialize:
  1507                           	callstack 0
  1508                           
  1509 ;; *************** function _gpio_pin_initialize *****************
  1510 ;; Defined at:
  1511 ;;		line 104 in file "MCAL_Layer/GPIO/hal_gpio.c"
  1512 ;; Parameters:    Size  Location     Type
  1513 ;;  pin_config      2   10[COMRAM] PTR const struct .
  1514 ;;		 -> seven_seg1.segment_pins(4), seven_seg1(5), relay_intialize@pin_obj(1), led_intialize@pin_obj(1), 
  1515 ;; Auto vars:     Size  Location     Type
  1516 ;;  ret             1   13[COMRAM] unsigned char 
  1517 ;; Return value:  Size  Location     Type
  1518 ;;                  1    wreg      unsigned char 
  1519 ;; Registers used:
  1520 ;;		wreg, fsr2l, fsr2h, status,2, status,0, prodl, prodh, cstack
  1521 ;; Tracked objects:
  1522 ;;		On entry : 0/0
  1523 ;;		On exit  : 0/0
  1524 ;;		Unchanged: 0/0
  1525 ;; Data sizes:     COMRAM   BANK0   BANK1   BANK2   BANK3   BANK4   BANK5   BANK6   BANK7   BANK8   BANK9  BANK10  BANK1
      +1  BANK12  BANK13  BANK14  BANK15
  1526 ;;      Params:         2       0       0       0       0       0       0       0       0       0       0       0       
      +0       0       0       0       0
  1527 ;;      Locals:         1       0       0       0       0       0       0       0       0       0       0       0       
      +0       0       0       0       0
  1528 ;;      Temps:          1       0       0       0       0       0       0       0       0       0       0       0       
      +0       0       0       0       0
  1529 ;;      Totals:         4       0       0       0       0       0       0       0       0       0       0       0       
      +0       0       0       0       0
  1530 ;;Total ram usage:        4 bytes
  1531 ;; Hardware stack levels used: 1
  1532 ;; Hardware stack levels required when called: 1
  1533 ;; This function calls:
  1534 ;;		_gpio_pin_direction_initialize
  1535 ;;		_gpio_pin_write_logic
  1536 ;; This function is called by:
  1537 ;;		_seven_segment_intialize
  1538 ;;		_led_intialize
  1539 ;;		_dc_motor_initialize
  1540 ;;		_keypad_initialize
  1541 ;;		_relay_intialize
  1542 ;;		_lcd_4bit_initialize
  1543 ;;		_lcd_8bit_initialize
  1544 ;; This function uses a non-reentrant model
  1545 ;;
  1546                           
  1547                           	psect	text8
  1548   001832                     __ptext8:
  1549                           	callstack 0
  1550   001832                     _gpio_pin_initialize:
  1551                           	callstack 26
  1552   001832                     
  1553                           ;MCAL_Layer/GPIO/hal_gpio.c: 107:     if(((void*)0) == pin_config || pin_config->pin > 8
      +                           -1)
  1554   001832  5038               	movf	gpio_pin_initialize@pin_config^0,w,c
  1555   001834  1039               	iorwf	(gpio_pin_initialize@pin_config+1)^0,w,c
  1556   001836  B4D8               	btfsc	status,2,c
  1557   001838  EF20  F00C         	goto	u1151
  1558   00183C  EF22  F00C         	goto	u1150
  1559   001840                     u1151:
  1560   001840  EF33  F00C         	goto	l1900
  1561   001844                     u1150:
  1562   001844  C038  FFD9         	movff	gpio_pin_initialize@pin_config,fsr2l
  1563   001848  C039  FFDA         	movff	gpio_pin_initialize@pin_config+1,fsr2h
  1564   00184C  30DF               	rrcf	223,w,c
  1565   00184E  32E8               	rrcf	wreg,f,c
  1566   001850  32E8               	rrcf	wreg,f,c
  1567   001852  0B07               	andlw	7
  1568   001854  6E3A               	movwf	??_gpio_pin_initialize^0,c
  1569   001856  0E07               	movlw	7
  1570   001858  643A               	cpfsgt	??_gpio_pin_initialize^0,c
  1571   00185A  EF31  F00C         	goto	u1161
  1572   00185E  EF33  F00C         	goto	u1160
  1573   001862                     u1161:
  1574   001862  EF37  F00C         	goto	l1902
  1575   001866                     u1160:
  1576   001866                     l1900:
  1577                           
  1578                           ;MCAL_Layer/GPIO/hal_gpio.c: 108:     {;MCAL_Layer/GPIO/hal_gpio.c: 109:         ret = (
      +                          Std_ReturnType)0x00;
  1579   001866  0E00               	movlw	0
  1580   001868  6E3B               	movwf	gpio_pin_initialize@ret^0,c
  1581                           
  1582                           ;MCAL_Layer/GPIO/hal_gpio.c: 111:     }
  1583   00186A  EF4D  F00C         	goto	l1904
  1584   00186E                     l1902:
  1585                           
  1586                           ;MCAL_Layer/GPIO/hal_gpio.c: 113:         ret = gpio_pin_direction_initialize(pin_config
      +                          );
  1587   00186E  C038  F02E         	movff	gpio_pin_initialize@pin_config,gpio_pin_direction_initialize@pin_config
  1588   001872  C039  F02F         	movff	gpio_pin_initialize@pin_config+1,gpio_pin_direction_initialize@pin_config+1
  1589   001876  EC16  F009         	call	_gpio_pin_direction_initialize	;wreg free
  1590   00187A  6E3B               	movwf	gpio_pin_initialize@ret^0,c
  1591                           
  1592                           ;MCAL_Layer/GPIO/hal_gpio.c: 114:         ret = gpio_pin_write_logic(pin_config , pin_co
      +                          nfig->logic);
  1593   00187C  C038  F02E         	movff	gpio_pin_initialize@pin_config,gpio_pin_write_logic@pin_config
  1594   001880  C039  F02F         	movff	gpio_pin_initialize@pin_config+1,gpio_pin_write_logic@pin_config+1
  1595   001884  C038  FFD9         	movff	gpio_pin_initialize@pin_config,fsr2l
  1596   001888  C039  FFDA         	movff	gpio_pin_initialize@pin_config+1,fsr2h
  1597   00188C  0E00               	movlw	0
  1598   00188E  BEDF               	btfsc	indf2,7,c
  1599   001890  0E01               	movlw	1
  1600   001892  6E30               	movwf	gpio_pin_write_logic@logic^0,c
  1601   001894  ECB8  F009         	call	_gpio_pin_write_logic	;wreg free
  1602   001898  6E3B               	movwf	gpio_pin_initialize@ret^0,c
  1603   00189A                     l1904:
  1604                           
  1605                           ;MCAL_Layer/GPIO/hal_gpio.c: 116:     return ret;
  1606   00189A  503B               	movf	gpio_pin_initialize@ret^0,w,c
  1607   00189C  0012               	return		;funcret
  1608   00189E                     __end_of_gpio_pin_initialize:
  1609                           	callstack 0
  1610                           
  1611 ;; *************** function _gpio_pin_write_logic *****************
  1612 ;; Defined at:
  1613 ;;		line 49 in file "MCAL_Layer/GPIO/hal_gpio.c"
  1614 ;; Parameters:    Size  Location     Type
  1615 ;;  pin_config      2    0[COMRAM] PTR const struct .
  1616 ;;		 -> seven_seg1.segment_pins(4), seven_seg1(5), relay_turn_off@pin_obj(1), relay_turn_on@pin_obj(1), 
  1617 ;;		 -> relay_intialize@pin_obj(1), led_turn_off@pin_obj(1), led_turn_on@pin_obj(1), led_intialize@pin_obj(1), 
  1618 ;;  logic           1    2[COMRAM] enum E2805
  1619 ;; Auto vars:     Size  Location     Type
  1620 ;;  ret             1    9[COMRAM] unsigned char 
  1621 ;; Return value:  Size  Location     Type
  1622 ;;                  1    wreg      unsigned char 
  1623 ;; Registers used:
  1624 ;;		wreg, fsr2l, fsr2h, status,2, status,0, prodl, prodh
  1625 ;; Tracked objects:
  1626 ;;		On entry : 0/0
  1627 ;;		On exit  : 0/0
  1628 ;;		Unchanged: 0/0
  1629 ;; Data sizes:     COMRAM   BANK0   BANK1   BANK2   BANK3   BANK4   BANK5   BANK6   BANK7   BANK8   BANK9  BANK10  BANK1
      +1  BANK12  BANK13  BANK14  BANK15
  1630 ;;      Params:         3       0       0       0       0       0       0       0       0       0       0       0       
      +0       0       0       0       0
  1631 ;;      Locals:         1       0       0       0       0       0       0       0       0       0       0       0       
      +0       0       0       0       0
  1632 ;;      Temps:          6       0       0       0       0       0       0       0       0       0       0       0       
      +0       0       0       0       0
  1633 ;;      Totals:        10       0       0       0       0       0       0       0       0       0       0       0       
      +0       0       0       0       0
  1634 ;;Total ram usage:       10 bytes
  1635 ;; Hardware stack levels used: 1
  1636 ;; This function calls:
  1637 ;;		Nothing
  1638 ;; This function is called by:
  1639 ;;		_gpio_pin_initialize
  1640 ;;		_seven_segment_write_number
  1641 ;;		_dc_motor_move_right
  1642 ;;		_dc_motor_move_left
  1643 ;;		_dc_motor_stop
  1644 ;;		_keypad_get_value
  1645 ;;		_led_turn_on
  1646 ;;		_led_turn_off
  1647 ;;		_relay_turn_on
  1648 ;;		_relay_turn_off
  1649 ;; This function uses a non-reentrant model
  1650 ;;
  1651                           
  1652                           	psect	text9
  1653   001370                     __ptext9:
  1654                           	callstack 0
  1655   001370                     _gpio_pin_write_logic:
  1656                           	callstack 26
  1657   001370                     
  1658                           ;MCAL_Layer/GPIO/hal_gpio.c: 49: Std_ReturnType gpio_pin_write_logic(const pin_config_t 
      +                          *pin_config, logic_t logic);MCAL_Layer/GPIO/hal_gpio.c: 50: {;MCAL_Layer/GPIO/hal_gpio.c
      +                          : 51:     Std_ReturnType ret = (Std_ReturnType)0x01;
  1659   001370  0E01               	movlw	1
  1660   001372  6E37               	movwf	gpio_pin_write_logic@ret^0,c
  1661   001374                     
  1662                           ;MCAL_Layer/GPIO/hal_gpio.c: 52:     if (((void*)0) == pin_config || pin_config->pin > 8
      +                           - 1) {
  1663   001374  502E               	movf	gpio_pin_write_logic@pin_config^0,w,c
  1664   001376  102F               	iorwf	(gpio_pin_write_logic@pin_config+1)^0,w,c
  1665   001378  B4D8               	btfsc	status,2,c
  1666   00137A  EFC1  F009         	goto	u1051
  1667   00137E  EFC3  F009         	goto	u1050
  1668   001382                     u1051:
  1669   001382  EFD4  F009         	goto	l1852
  1670   001386                     u1050:
  1671   001386  C02E  FFD9         	movff	gpio_pin_write_logic@pin_config,fsr2l
  1672   00138A  C02F  FFDA         	movff	gpio_pin_write_logic@pin_config+1,fsr2h
  1673   00138E  30DF               	rrcf	223,w,c
  1674   001390  32E8               	rrcf	wreg,f,c
  1675   001392  32E8               	rrcf	wreg,f,c
  1676   001394  0B07               	andlw	7
  1677   001396  6E31               	movwf	??_gpio_pin_write_logic^0,c
  1678   001398  0E07               	movlw	7
  1679   00139A  6431               	cpfsgt	??_gpio_pin_write_logic^0,c
  1680   00139C  EFD2  F009         	goto	u1061
  1681   0013A0  EFD4  F009         	goto	u1060
  1682   0013A4                     u1061:
  1683   0013A4  EF37  F00A         	goto	l1860
  1684   0013A8                     u1060:
  1685   0013A8                     l1852:
  1686                           
  1687                           ;MCAL_Layer/GPIO/hal_gpio.c: 53:         ret = (Std_ReturnType)0x00;
  1688   0013A8  0E00               	movlw	0
  1689   0013AA  6E37               	movwf	gpio_pin_write_logic@ret^0,c
  1690                           
  1691                           ;MCAL_Layer/GPIO/hal_gpio.c: 54:     } else {
  1692   0013AC  EF4C  F00A         	goto	l1862
  1693   0013B0                     l1854:
  1694                           
  1695                           ;MCAL_Layer/GPIO/hal_gpio.c: 57:                 (*lat_reg[pin_config->port] &= ~((uint8
      +                          )1<<pin_config->pin));
  1696   0013B0  C02E  FFD9         	movff	gpio_pin_write_logic@pin_config,fsr2l
  1697   0013B4  C02F  FFDA         	movff	gpio_pin_write_logic@pin_config+1,fsr2h
  1698   0013B8  30DF               	rrcf	223,w,c
  1699   0013BA  32E8               	rrcf	wreg,f,c
  1700   0013BC  32E8               	rrcf	wreg,f,c
  1701   0013BE  0B07               	andlw	7
  1702   0013C0  6E31               	movwf	??_gpio_pin_write_logic^0,c
  1703   0013C2  0E01               	movlw	1
  1704   0013C4  6E32               	movwf	(??_gpio_pin_write_logic+1)^0,c
  1705   0013C6  2A31               	incf	??_gpio_pin_write_logic^0,f,c
  1706   0013C8  EFE8  F009         	goto	u1074
  1707   0013CC                     u1075:
  1708   0013CC  90D8               	bcf	status,0,c
  1709   0013CE  3632               	rlcf	(??_gpio_pin_write_logic+1)^0,f,c
  1710   0013D0                     u1074:
  1711   0013D0  2E31               	decfsz	??_gpio_pin_write_logic^0,f,c
  1712   0013D2  EFE6  F009         	goto	u1075
  1713   0013D6  5032               	movf	(??_gpio_pin_write_logic+1)^0,w,c
  1714   0013D8  0AFF               	xorlw	255
  1715   0013DA  6E33               	movwf	(??_gpio_pin_write_logic+2)^0,c
  1716   0013DC  C02E  FFD9         	movff	gpio_pin_write_logic@pin_config,fsr2l
  1717   0013E0  C02F  FFDA         	movff	gpio_pin_write_logic@pin_config+1,fsr2h
  1718   0013E4  50DF               	movf	223,w,c
  1719   0013E6  0B07               	andlw	7
  1720   0013E8  6E34               	movwf	(??_gpio_pin_write_logic+3)^0,c
  1721   0013EA  5034               	movf	(??_gpio_pin_write_logic+3)^0,w,c
  1722   0013EC  0D02               	mullw	2
  1723   0013EE  0E0B               	movlw	low _lat_reg
  1724   0013F0  24F3               	addwf	243,w,c
  1725   0013F2  6ED9               	movwf	fsr2l,c
  1726   0013F4  0E00               	movlw	high _lat_reg
  1727   0013F6  20F4               	addwfc	prodh,w,c
  1728   0013F8  6EDA               	movwf	fsr2h,c
  1729   0013FA  CFDE F035          	movff	postinc2,??_gpio_pin_write_logic+4
  1730   0013FE  CFDD F036          	movff	postdec2,??_gpio_pin_write_logic+5
  1731   001402  C035  FFD9         	movff	??_gpio_pin_write_logic+4,fsr2l
  1732   001406  C036  FFDA         	movff	??_gpio_pin_write_logic+5,fsr2h
  1733   00140A  5033               	movf	(??_gpio_pin_write_logic+2)^0,w,c
  1734   00140C  16DF               	andwf	indf2,f,c
  1735                           
  1736                           ;MCAL_Layer/GPIO/hal_gpio.c: 58:                 break;
  1737   00140E  EF4C  F00A         	goto	l1862
  1738   001412                     l1856:
  1739                           
  1740                           ;MCAL_Layer/GPIO/hal_gpio.c: 60:                 (*lat_reg[pin_config->port] |= ((uint8)
      +                          1<<pin_config->pin));
  1741   001412  C02E  FFD9         	movff	gpio_pin_write_logic@pin_config,fsr2l
  1742   001416  C02F  FFDA         	movff	gpio_pin_write_logic@pin_config+1,fsr2h
  1743   00141A  30DF               	rrcf	223,w,c
  1744   00141C  32E8               	rrcf	wreg,f,c
  1745   00141E  32E8               	rrcf	wreg,f,c
  1746   001420  0B07               	andlw	7
  1747   001422  6E31               	movwf	??_gpio_pin_write_logic^0,c
  1748   001424  0E01               	movlw	1
  1749   001426  6E32               	movwf	(??_gpio_pin_write_logic+1)^0,c
  1750   001428  2A31               	incf	??_gpio_pin_write_logic^0,f,c
  1751   00142A  EF19  F00A         	goto	u1084
  1752   00142E                     u1085:
  1753   00142E  90D8               	bcf	status,0,c
  1754   001430  3632               	rlcf	(??_gpio_pin_write_logic+1)^0,f,c
  1755   001432                     u1084:
  1756   001432  2E31               	decfsz	??_gpio_pin_write_logic^0,f,c
  1757   001434  EF17  F00A         	goto	u1085
  1758   001438  C02E  FFD9         	movff	gpio_pin_write_logic@pin_config,fsr2l
  1759   00143C  C02F  FFDA         	movff	gpio_pin_write_logic@pin_config+1,fsr2h
  1760   001440  50DF               	movf	223,w,c
  1761   001442  0B07               	andlw	7
  1762   001444  6E33               	movwf	(??_gpio_pin_write_logic+2)^0,c
  1763   001446  5033               	movf	(??_gpio_pin_write_logic+2)^0,w,c
  1764   001448  0D02               	mullw	2
  1765   00144A  0E0B               	movlw	low _lat_reg
  1766   00144C  24F3               	addwf	243,w,c
  1767   00144E  6ED9               	movwf	fsr2l,c
  1768   001450  0E00               	movlw	high _lat_reg
  1769   001452  20F4               	addwfc	prodh,w,c
  1770   001454  6EDA               	movwf	fsr2h,c
  1771   001456  CFDE F034          	movff	postinc2,??_gpio_pin_write_logic+3
  1772   00145A  CFDD F035          	movff	postdec2,??_gpio_pin_write_logic+4
  1773   00145E  C034  FFD9         	movff	??_gpio_pin_write_logic+3,fsr2l
  1774   001462  C035  FFDA         	movff	??_gpio_pin_write_logic+4,fsr2h
  1775   001466  5032               	movf	(??_gpio_pin_write_logic+1)^0,w,c
  1776   001468  12DF               	iorwf	indf2,f,c
  1777                           
  1778                           ;MCAL_Layer/GPIO/hal_gpio.c: 61:                 break;
  1779   00146A  EF4C  F00A         	goto	l1862
  1780   00146E                     l1860:
  1781   00146E  5030               	movf	gpio_pin_write_logic@logic^0,w,c
  1782   001470  6E31               	movwf	??_gpio_pin_write_logic^0,c
  1783   001472  6A32               	clrf	(??_gpio_pin_write_logic+1)^0,c
  1784                           
  1785                           ; Switch on 2 bytes has been partitioned into a top level switch of size 1, and 1 sub-sw
      +                          itches
  1786                           ; Switch size 1, requested type "simple"
  1787                           ; Number of cases is 1, Range of values is 0 to 0
  1788                           ; switch strategies available:
  1789                           ; Name         Instructions Cycles
  1790                           ; simple_byte            4     3 (average)
  1791                           ;	Chosen strategy is simple_byte
  1792   001474  5032               	movf	(??_gpio_pin_write_logic+1)^0,w,c
  1793   001476  0A00               	xorlw	0	; case 0
  1794   001478  B4D8               	btfsc	status,2,c
  1795   00147A  EF41  F00A         	goto	l2444
  1796   00147E  EFD4  F009         	goto	l1852
  1797   001482                     l2444:
  1798                           
  1799                           ; Switch size 1, requested type "simple"
  1800                           ; Number of cases is 2, Range of values is 0 to 1
  1801                           ; switch strategies available:
  1802                           ; Name         Instructions Cycles
  1803                           ; simple_byte            7     4 (average)
  1804                           ;	Chosen strategy is simple_byte
  1805   001482  5031               	movf	??_gpio_pin_write_logic^0,w,c
  1806   001484  0A00               	xorlw	0	; case 0
  1807   001486  B4D8               	btfsc	status,2,c
  1808   001488  EFD8  F009         	goto	l1854
  1809   00148C  0A01               	xorlw	1	; case 1
  1810   00148E  B4D8               	btfsc	status,2,c
  1811   001490  EF09  F00A         	goto	l1856
  1812   001494  EFD4  F009         	goto	l1852
  1813   001498                     l1862:
  1814                           
  1815                           ;MCAL_Layer/GPIO/hal_gpio.c: 66:     return ret;
  1816   001498  5037               	movf	gpio_pin_write_logic@ret^0,w,c
  1817   00149A  0012               	return		;funcret
  1818   00149C                     __end_of_gpio_pin_write_logic:
  1819                           	callstack 0
  1820                           
  1821 ;; *************** function _gpio_port_direction_initialize *****************
  1822 ;; Defined at:
  1823 ;;		line 125 in file "MCAL_Layer/GPIO/hal_gpio.c"
  1824 ;; Parameters:    Size  Location     Type
  1825 ;;  port            1    wreg     enum E2819
  1826 ;;  direction       1    0[COMRAM] unsigned char 
  1827 ;; Auto vars:     Size  Location     Type
  1828 ;;  port            1    4[COMRAM] enum E2819
  1829 ;;  ret             1    3[COMRAM] unsigned char 
  1830 ;; Return value:  Size  Location     Type
  1831 ;;                  1    wreg      unsigned char 
  1832 ;; Registers used:
  1833 ;;		wreg, fsr2l, fsr2h, status,2, status,0, prodl, prodh
  1834 ;; Tracked objects:
  1835 ;;		On entry : 0/0
  1836 ;;		On exit  : 0/0
  1837 ;;		Unchanged: 0/0
  1838 ;; Data sizes:     COMRAM   BANK0   BANK1   BANK2   BANK3   BANK4   BANK5   BANK6   BANK7   BANK8   BANK9  BANK10  BANK1
      +1  BANK12  BANK13  BANK14  BANK15
  1839 ;;      Params:         1       0       0       0       0       0       0       0       0       0       0       0       
      +0       0       0       0       0
  1840 ;;      Locals:         2       0       0       0       0       0       0       0       0       0       0       0       
      +0       0       0       0       0
  1841 ;;      Temps:          2       0       0       0       0       0       0       0       0       0       0       0       
      +0       0       0       0       0
  1842 ;;      Totals:         5       0       0       0       0       0       0       0       0       0       0       0       
      +0       0       0       0       0
  1843 ;;Total ram usage:        5 bytes
  1844 ;; Hardware stack levels used: 1
  1845 ;; This function calls:
  1846 ;;		Nothing
  1847 ;; This function is called by:
  1848 ;;		_ecu_layer_intialize
  1849 ;; This function uses a non-reentrant model
  1850 ;;
  1851                           
  1852                           	psect	text10
  1853   001942                     __ptext10:
  1854                           	callstack 0
  1855   001942                     _gpio_port_direction_initialize:
  1856                           	callstack 28
  1857                           
  1858                           ;incstack = 0
  1859                           ;gpio_port_direction_initialize@port stored from wreg
  1860   001942  6E32               	movwf	gpio_port_direction_initialize@port^0,c
  1861   001944                     
  1862                           ;MCAL_Layer/GPIO/hal_gpio.c: 125: Std_ReturnType gpio_port_direction_initialize(port_ind
      +                          ex_t port,uint8 direction);MCAL_Layer/GPIO/hal_gpio.c: 126: {;MCAL_Layer/GPIO/hal_gpio.c
      +                          : 127:     Std_ReturnType ret = (Std_ReturnType)0x01;
  1863   001944  0E01               	movlw	1
  1864   001946  6E31               	movwf	gpio_port_direction_initialize@ret^0,c
  1865   001948                     
  1866                           ;MCAL_Layer/GPIO/hal_gpio.c: 128:     if(port > 5 -1)
  1867   001948  0E04               	movlw	4
  1868   00194A  6432               	cpfsgt	gpio_port_direction_initialize@port^0,c
  1869   00194C  EFAA  F00C         	goto	u1211
  1870   001950  EFAC  F00C         	goto	u1210
  1871   001954                     u1211:
  1872   001954  EFB0  F00C         	goto	l1956
  1873   001958                     u1210:
  1874   001958                     
  1875                           ;MCAL_Layer/GPIO/hal_gpio.c: 129:     {;MCAL_Layer/GPIO/hal_gpio.c: 130:         ret = (
      +                          Std_ReturnType)0x00;
  1876   001958  0E00               	movlw	0
  1877   00195A  6E31               	movwf	gpio_port_direction_initialize@ret^0,c
  1878                           
  1879                           ;MCAL_Layer/GPIO/hal_gpio.c: 131:     }
  1880   00195C  EFC2  F00C         	goto	l1958
  1881   001960                     l1956:
  1882                           
  1883                           ;MCAL_Layer/GPIO/hal_gpio.c: 133:     {;MCAL_Layer/GPIO/hal_gpio.c: 134:         *tris_r
      +                          eg[port] = direction;
  1884   001960  5032               	movf	gpio_port_direction_initialize@port^0,w,c
  1885   001962  0D02               	mullw	2
  1886   001964  0E15               	movlw	low _tris_reg
  1887   001966  24F3               	addwf	243,w,c
  1888   001968  6ED9               	movwf	fsr2l,c
  1889   00196A  0E00               	movlw	high _tris_reg
  1890   00196C  20F4               	addwfc	prodh,w,c
  1891   00196E  6EDA               	movwf	fsr2h,c
  1892   001970  CFDE F02F          	movff	postinc2,??_gpio_port_direction_initialize
  1893   001974  CFDD F030          	movff	postdec2,??_gpio_port_direction_initialize+1
  1894   001978  C02F  FFD9         	movff	??_gpio_port_direction_initialize,fsr2l
  1895   00197C  C030  FFDA         	movff	??_gpio_port_direction_initialize+1,fsr2h
  1896   001980  C02E  FFDF         	movff	gpio_port_direction_initialize@direction,indf2
  1897   001984                     l1958:
  1898                           
  1899                           ;MCAL_Layer/GPIO/hal_gpio.c: 136:     return ret;
  1900   001984  5031               	movf	gpio_port_direction_initialize@ret^0,w,c
  1901   001986  0012               	return		;funcret
  1902   001988                     __end_of_gpio_port_direction_initialize:
  1903                           	callstack 0
  1904                           
  1905 ;; *************** function _button_initialize *****************
  1906 ;; Defined at:
  1907 ;;		line 3 in file "ECU_Layer/button/button.c"
  1908 ;; Parameters:    Size  Location     Type
  1909 ;;  btn             2    9[COMRAM] PTR const struct .
  1910 ;;		 -> min_btn(3), hr_btn(3), 
  1911 ;; Auto vars:     Size  Location     Type
  1912 ;;  ret             1   11[COMRAM] unsigned char 
  1913 ;; Return value:  Size  Location     Type
  1914 ;;                  1    wreg      unsigned char 
  1915 ;; Registers used:
  1916 ;;		wreg, fsr2l, fsr2h, status,2, status,0, prodl, prodh, cstack
  1917 ;; Tracked objects:
  1918 ;;		On entry : 0/0
  1919 ;;		On exit  : 0/0
  1920 ;;		Unchanged: 0/0
  1921 ;; Data sizes:     COMRAM   BANK0   BANK1   BANK2   BANK3   BANK4   BANK5   BANK6   BANK7   BANK8   BANK9  BANK10  BANK1
      +1  BANK12  BANK13  BANK14  BANK15
  1922 ;;      Params:         2       0       0       0       0       0       0       0       0       0       0       0       
      +0       0       0       0       0
  1923 ;;      Locals:         1       0       0       0       0       0       0       0       0       0       0       0       
      +0       0       0       0       0
  1924 ;;      Temps:          0       0       0       0       0       0       0       0       0       0       0       0       
      +0       0       0       0       0
  1925 ;;      Totals:         3       0       0       0       0       0       0       0       0       0       0       0       
      +0       0       0       0       0
  1926 ;;Total ram usage:        3 bytes
  1927 ;; Hardware stack levels used: 1
  1928 ;; Hardware stack levels required when called: 1
  1929 ;; This function calls:
  1930 ;;		_gpio_pin_direction_initialize
  1931 ;; This function is called by:
  1932 ;;		_ecu_layer_intialize
  1933 ;; This function uses a non-reentrant model
  1934 ;;
  1935                           
  1936                           	psect	text11
  1937   0019FA                     __ptext11:
  1938                           	callstack 0
  1939   0019FA                     _button_initialize:
  1940                           	callstack 27
  1941   0019FA                     
  1942                           ;ECU_Layer/button/button.c: 4:     Std_ReturnType ret = (Std_ReturnType)0x01;
  1943   0019FA  0E01               	movlw	1
  1944   0019FC  6E39               	movwf	button_initialize@ret^0,c
  1945   0019FE                     
  1946                           ;ECU_Layer/button/button.c: 5:     if (((void*)0) == btn) {
  1947   0019FE  5037               	movf	button_initialize@btn^0,w,c
  1948   001A00  1038               	iorwf	(button_initialize@btn+1)^0,w,c
  1949   001A02  A4D8               	btfss	status,2,c
  1950   001A04  EF06  F00D         	goto	u1181
  1951   001A08  EF08  F00D         	goto	u1180
  1952   001A0C                     u1181:
  1953   001A0C  EF0C  F00D         	goto	l1926
  1954   001A10                     u1180:
  1955   001A10                     
  1956                           ;ECU_Layer/button/button.c: 6:         ret = (Std_ReturnType)0x00;
  1957   001A10  0E00               	movlw	0
  1958   001A12  6E39               	movwf	button_initialize@ret^0,c
  1959                           
  1960                           ;ECU_Layer/button/button.c: 7:     } else {
  1961   001A14  EF12  F00D         	goto	l1928
  1962   001A18                     l1926:
  1963                           
  1964                           ;ECU_Layer/button/button.c: 8:         gpio_pin_direction_initialize(&(btn->button_pin))
      +                          ;
  1965   001A18  C037  F02E         	movff	button_initialize@btn,gpio_pin_direction_initialize@pin_config
  1966   001A1C  C038  F02F         	movff	button_initialize@btn+1,gpio_pin_direction_initialize@pin_config+1
  1967   001A20  EC16  F009         	call	_gpio_pin_direction_initialize	;wreg free
  1968   001A24                     l1928:
  1969                           
  1970                           ;ECU_Layer/button/button.c: 12:     return ret;
  1971   001A24  5039               	movf	button_initialize@ret^0,w,c
  1972   001A26  0012               	return		;funcret
  1973   001A28                     __end_of_button_initialize:
  1974                           	callstack 0
  1975                           
  1976 ;; *************** function _gpio_pin_direction_initialize *****************
  1977 ;; Defined at:
  1978 ;;		line 9 in file "MCAL_Layer/GPIO/hal_gpio.c"
  1979 ;; Parameters:    Size  Location     Type
  1980 ;;  pin_config      2    0[COMRAM] PTR const struct .
  1981 ;;		 -> seven_seg1.segment_pins(4), seven_seg1(5), min_btn(3), hr_btn(3), 
  1982 ;;		 -> relay_intialize@pin_obj(1), led_intialize@pin_obj(1), 
  1983 ;; Auto vars:     Size  Location     Type
  1984 ;;  ret             1    8[COMRAM] unsigned char 
  1985 ;; Return value:  Size  Location     Type
  1986 ;;                  1    wreg      unsigned char 
  1987 ;; Registers used:
  1988 ;;		wreg, fsr2l, fsr2h, status,2, status,0, prodl, prodh
  1989 ;; Tracked objects:
  1990 ;;		On entry : 0/0
  1991 ;;		On exit  : 0/0
  1992 ;;		Unchanged: 0/0
  1993 ;; Data sizes:     COMRAM   BANK0   BANK1   BANK2   BANK3   BANK4   BANK5   BANK6   BANK7   BANK8   BANK9  BANK10  BANK1
      +1  BANK12  BANK13  BANK14  BANK15
  1994 ;;      Params:         2       0       0       0       0       0       0       0       0       0       0       0       
      +0       0       0       0       0
  1995 ;;      Locals:         1       0       0       0       0       0       0       0       0       0       0       0       
      +0       0       0       0       0
  1996 ;;      Temps:          6       0       0       0       0       0       0       0       0       0       0       0       
      +0       0       0       0       0
  1997 ;;      Totals:         9       0       0       0       0       0       0       0       0       0       0       0       
      +0       0       0       0       0
  1998 ;;Total ram usage:        9 bytes
  1999 ;; Hardware stack levels used: 1
  2000 ;; This function calls:
  2001 ;;		Nothing
  2002 ;; This function is called by:
  2003 ;;		_button_initialize
  2004 ;;		_gpio_pin_initialize
  2005 ;;		_keypad_initialize
  2006 ;; This function uses a non-reentrant model
  2007 ;;
  2008                           
  2009                           	psect	text12
  2010   00122C                     __ptext12:
  2011                           	callstack 0
  2012   00122C                     _gpio_pin_direction_initialize:
  2013                           	callstack 26
  2014   00122C                     
  2015                           ;MCAL_Layer/GPIO/hal_gpio.c: 9: Std_ReturnType gpio_pin_direction_initialize(const pin_c
      +                          onfig_t *pin_config);MCAL_Layer/GPIO/hal_gpio.c: 10: {;MCAL_Layer/GPIO/hal_gpio.c: 11:  
      +                             Std_ReturnType ret =(Std_ReturnType)0x01;
  2016   00122C  0E01               	movlw	1
  2017   00122E  6E36               	movwf	gpio_pin_direction_initialize@ret^0,c
  2018   001230                     
  2019                           ;MCAL_Layer/GPIO/hal_gpio.c: 12:     if(((void*)0) == pin_config || pin_config->pin > 8 
      +                          -1)
  2020   001230  502E               	movf	gpio_pin_direction_initialize@pin_config^0,w,c
  2021   001232  102F               	iorwf	(gpio_pin_direction_initialize@pin_config+1)^0,w,c
  2022   001234  B4D8               	btfsc	status,2,c
  2023   001236  EF1F  F009         	goto	u1091
  2024   00123A  EF21  F009         	goto	u1090
  2025   00123E                     u1091:
  2026   00123E  EF32  F009         	goto	l1876
  2027   001242                     u1090:
  2028   001242  C02E  FFD9         	movff	gpio_pin_direction_initialize@pin_config,fsr2l
  2029   001246  C02F  FFDA         	movff	gpio_pin_direction_initialize@pin_config+1,fsr2h
  2030   00124A  30DF               	rrcf	223,w,c
  2031   00124C  32E8               	rrcf	wreg,f,c
  2032   00124E  32E8               	rrcf	wreg,f,c
  2033   001250  0B07               	andlw	7
  2034   001252  6E30               	movwf	??_gpio_pin_direction_initialize^0,c
  2035   001254  0E07               	movlw	7
  2036   001256  6430               	cpfsgt	??_gpio_pin_direction_initialize^0,c
  2037   001258  EF30  F009         	goto	u1101
  2038   00125C  EF32  F009         	goto	u1100
  2039   001260                     u1101:
  2040   001260  EF95  F009         	goto	l1884
  2041   001264                     u1100:
  2042   001264                     l1876:
  2043                           
  2044                           ;MCAL_Layer/GPIO/hal_gpio.c: 13:     {;MCAL_Layer/GPIO/hal_gpio.c: 14:         ret=(Std_
      +                          ReturnType)0x00;
  2045   001264  0E00               	movlw	0
  2046   001266  6E36               	movwf	gpio_pin_direction_initialize@ret^0,c
  2047                           
  2048                           ;MCAL_Layer/GPIO/hal_gpio.c: 15:     }
  2049   001268  EFB6  F009         	goto	l1886
  2050   00126C                     l1878:
  2051                           
  2052                           ;MCAL_Layer/GPIO/hal_gpio.c: 20:                 (*tris_reg[pin_config->port] &= ~((uint
      +                          8)1<<pin_config->pin));
  2053   00126C  C02E  FFD9         	movff	gpio_pin_direction_initialize@pin_config,fsr2l
  2054   001270  C02F  FFDA         	movff	gpio_pin_direction_initialize@pin_config+1,fsr2h
  2055   001274  30DF               	rrcf	223,w,c
  2056   001276  32E8               	rrcf	wreg,f,c
  2057   001278  32E8               	rrcf	wreg,f,c
  2058   00127A  0B07               	andlw	7
  2059   00127C  6E30               	movwf	??_gpio_pin_direction_initialize^0,c
  2060   00127E  0E01               	movlw	1
  2061   001280  6E31               	movwf	(??_gpio_pin_direction_initialize+1)^0,c
  2062   001282  2A30               	incf	??_gpio_pin_direction_initialize^0,f,c
  2063   001284  EF46  F009         	goto	u1114
  2064   001288                     u1115:
  2065   001288  90D8               	bcf	status,0,c
  2066   00128A  3631               	rlcf	(??_gpio_pin_direction_initialize+1)^0,f,c
  2067   00128C                     u1114:
  2068   00128C  2E30               	decfsz	??_gpio_pin_direction_initialize^0,f,c
  2069   00128E  EF44  F009         	goto	u1115
  2070   001292  5031               	movf	(??_gpio_pin_direction_initialize+1)^0,w,c
  2071   001294  0AFF               	xorlw	255
  2072   001296  6E32               	movwf	(??_gpio_pin_direction_initialize+2)^0,c
  2073   001298  C02E  FFD9         	movff	gpio_pin_direction_initialize@pin_config,fsr2l
  2074   00129C  C02F  FFDA         	movff	gpio_pin_direction_initialize@pin_config+1,fsr2h
  2075   0012A0  50DF               	movf	223,w,c
  2076   0012A2  0B07               	andlw	7
  2077   0012A4  6E33               	movwf	(??_gpio_pin_direction_initialize+3)^0,c
  2078   0012A6  5033               	movf	(??_gpio_pin_direction_initialize+3)^0,w,c
  2079   0012A8  0D02               	mullw	2
  2080   0012AA  0E15               	movlw	low _tris_reg
  2081   0012AC  24F3               	addwf	243,w,c
  2082   0012AE  6ED9               	movwf	fsr2l,c
  2083   0012B0  0E00               	movlw	high _tris_reg
  2084   0012B2  20F4               	addwfc	prodh,w,c
  2085   0012B4  6EDA               	movwf	fsr2h,c
  2086   0012B6  CFDE F034          	movff	postinc2,??_gpio_pin_direction_initialize+4
  2087   0012BA  CFDD F035          	movff	postdec2,??_gpio_pin_direction_initialize+5
  2088   0012BE  C034  FFD9         	movff	??_gpio_pin_direction_initialize+4,fsr2l
  2089   0012C2  C035  FFDA         	movff	??_gpio_pin_direction_initialize+5,fsr2h
  2090   0012C6  5032               	movf	(??_gpio_pin_direction_initialize+2)^0,w,c
  2091   0012C8  16DF               	andwf	indf2,f,c
  2092                           
  2093                           ;MCAL_Layer/GPIO/hal_gpio.c: 21:                 break;
  2094   0012CA  EFB6  F009         	goto	l1886
  2095   0012CE                     l1880:
  2096                           
  2097                           ;MCAL_Layer/GPIO/hal_gpio.c: 23:                 (*tris_reg[pin_config->port] |= ((uint8
      +                          )1<<pin_config->pin));
  2098   0012CE  C02E  FFD9         	movff	gpio_pin_direction_initialize@pin_config,fsr2l
  2099   0012D2  C02F  FFDA         	movff	gpio_pin_direction_initialize@pin_config+1,fsr2h
  2100   0012D6  30DF               	rrcf	223,w,c
  2101   0012D8  32E8               	rrcf	wreg,f,c
  2102   0012DA  32E8               	rrcf	wreg,f,c
  2103   0012DC  0B07               	andlw	7
  2104   0012DE  6E30               	movwf	??_gpio_pin_direction_initialize^0,c
  2105   0012E0  0E01               	movlw	1
  2106   0012E2  6E31               	movwf	(??_gpio_pin_direction_initialize+1)^0,c
  2107   0012E4  2A30               	incf	??_gpio_pin_direction_initialize^0,f,c
  2108   0012E6  EF77  F009         	goto	u1124
  2109   0012EA                     u1125:
  2110   0012EA  90D8               	bcf	status,0,c
  2111   0012EC  3631               	rlcf	(??_gpio_pin_direction_initialize+1)^0,f,c
  2112   0012EE                     u1124:
  2113   0012EE  2E30               	decfsz	??_gpio_pin_direction_initialize^0,f,c
  2114   0012F0  EF75  F009         	goto	u1125
  2115   0012F4  C02E  FFD9         	movff	gpio_pin_direction_initialize@pin_config,fsr2l
  2116   0012F8  C02F  FFDA         	movff	gpio_pin_direction_initialize@pin_config+1,fsr2h
  2117   0012FC  50DF               	movf	223,w,c
  2118   0012FE  0B07               	andlw	7
  2119   001300  6E32               	movwf	(??_gpio_pin_direction_initialize+2)^0,c
  2120   001302  5032               	movf	(??_gpio_pin_direction_initialize+2)^0,w,c
  2121   001304  0D02               	mullw	2
  2122   001306  0E15               	movlw	low _tris_reg
  2123   001308  24F3               	addwf	243,w,c
  2124   00130A  6ED9               	movwf	fsr2l,c
  2125   00130C  0E00               	movlw	high _tris_reg
  2126   00130E  20F4               	addwfc	prodh,w,c
  2127   001310  6EDA               	movwf	fsr2h,c
  2128   001312  CFDE F033          	movff	postinc2,??_gpio_pin_direction_initialize+3
  2129   001316  CFDD F034          	movff	postdec2,??_gpio_pin_direction_initialize+4
  2130   00131A  C033  FFD9         	movff	??_gpio_pin_direction_initialize+3,fsr2l
  2131   00131E  C034  FFDA         	movff	??_gpio_pin_direction_initialize+4,fsr2h
  2132   001322  5031               	movf	(??_gpio_pin_direction_initialize+1)^0,w,c
  2133   001324  12DF               	iorwf	indf2,f,c
  2134                           
  2135                           ;MCAL_Layer/GPIO/hal_gpio.c: 24:                 break;
  2136   001326  EFB6  F009         	goto	l1886
  2137   00132A                     l1884:
  2138   00132A  C02E  FFD9         	movff	gpio_pin_direction_initialize@pin_config,fsr2l
  2139   00132E  C02F  FFDA         	movff	gpio_pin_direction_initialize@pin_config+1,fsr2h
  2140   001332  BCDF               	btfsc	indf2,6,c
  2141   001334  EF9E  F009         	goto	u1131
  2142   001338  EFA1  F009         	goto	u1130
  2143   00133C                     u1131:
  2144   00133C  0E01               	movlw	1
  2145   00133E  EFA2  F009         	goto	u1140
  2146   001342                     u1130:
  2147   001342  0E00               	movlw	0
  2148   001344                     u1140:
  2149   001344  6E30               	movwf	??_gpio_pin_direction_initialize^0,c
  2150   001346  6A31               	clrf	(??_gpio_pin_direction_initialize+1)^0,c
  2151                           
  2152                           ; Switch on 2 bytes has been partitioned into a top level switch of size 1, and 1 sub-sw
      +                          itches
  2153                           ; Switch size 1, requested type "simple"
  2154                           ; Number of cases is 1, Range of values is 0 to 0
  2155                           ; switch strategies available:
  2156                           ; Name         Instructions Cycles
  2157                           ; simple_byte            4     3 (average)
  2158                           ;	Chosen strategy is simple_byte
  2159   001348  5031               	movf	(??_gpio_pin_direction_initialize+1)^0,w,c
  2160   00134A  0A00               	xorlw	0	; case 0
  2161   00134C  B4D8               	btfsc	status,2,c
  2162   00134E  EFAB  F009         	goto	l2446
  2163   001352  EFB6  F009         	goto	l1886
  2164   001356                     l2446:
  2165                           
  2166                           ; Switch size 1, requested type "simple"
  2167                           ; Number of cases is 2, Range of values is 0 to 1
  2168                           ; switch strategies available:
  2169                           ; Name         Instructions Cycles
  2170                           ; simple_byte            7     4 (average)
  2171                           ;	Chosen strategy is simple_byte
  2172   001356  5030               	movf	??_gpio_pin_direction_initialize^0,w,c
  2173   001358  0A00               	xorlw	0	; case 0
  2174   00135A  B4D8               	btfsc	status,2,c
  2175   00135C  EF36  F009         	goto	l1878
  2176   001360  0A01               	xorlw	1	; case 1
  2177   001362  B4D8               	btfsc	status,2,c
  2178   001364  EF67  F009         	goto	l1880
  2179   001368  EFB6  F009         	goto	l1886
  2180   00136C                     l1886:
  2181                           
  2182                           ;MCAL_Layer/GPIO/hal_gpio.c: 28:     return ret;
  2183   00136C  5036               	movf	gpio_pin_direction_initialize@ret^0,w,c
  2184   00136E  0012               	return		;funcret
  2185   001370                     __end_of_gpio_pin_direction_initialize:
  2186                           	callstack 0
  2187                           
  2188 ;; *************** function ___awmod *****************
  2189 ;; Defined at:
  2190 ;;		line 7 in file "C:\Program Files\Microchip\xc8\v2.41\pic\sources\c99\common\awmod.c"
  2191 ;; Parameters:    Size  Location     Type
  2192 ;;  dividend        2    0[COMRAM] int 
  2193 ;;  divisor         2    2[COMRAM] int 
  2194 ;; Auto vars:     Size  Location     Type
  2195 ;;  sign            1    5[COMRAM] unsigned char 
  2196 ;;  counter         1    4[COMRAM] unsigned char 
  2197 ;; Return value:  Size  Location     Type
  2198 ;;                  2    0[COMRAM] int 
  2199 ;; Registers used:
  2200 ;;		wreg, status,2, status,0
  2201 ;; Tracked objects:
  2202 ;;		On entry : 0/0
  2203 ;;		On exit  : 0/0
  2204 ;;		Unchanged: 0/0
  2205 ;; Data sizes:     COMRAM   BANK0   BANK1   BANK2   BANK3   BANK4   BANK5   BANK6   BANK7   BANK8   BANK9  BANK10  BANK1
      +1  BANK12  BANK13  BANK14  BANK15
  2206 ;;      Params:         4       0       0       0       0       0       0       0       0       0       0       0       
      +0       0       0       0       0
  2207 ;;      Locals:         2       0       0       0       0       0       0       0       0       0       0       0       
      +0       0       0       0       0
  2208 ;;      Temps:          0       0       0       0       0       0       0       0       0       0       0       0       
      +0       0       0       0       0
  2209 ;;      Totals:         6       0       0       0       0       0       0       0       0       0       0       0       
      +0       0       0       0       0
  2210 ;;Total ram usage:        6 bytes
  2211 ;; Hardware stack levels used: 1
  2212 ;; This function calls:
  2213 ;;		Nothing
  2214 ;; This function is called by:
  2215 ;;		_main
  2216 ;; This function uses a non-reentrant model
  2217 ;;
  2218                           
  2219                           	psect	text13
  2220   001702                     __ptext13:
  2221                           	callstack 0
  2222   001702                     ___awmod:
  2223                           	callstack 30
  2224   001702  0E00               	movlw	0
  2225   001704  6E33               	movwf	___awmod@sign^0,c
  2226   001706  BE2F               	btfsc	(___awmod@dividend+1)^0,7,c
  2227   001708  EF8A  F00B         	goto	u1410
  2228   00170C  EF88  F00B         	goto	u1411
  2229   001710                     u1411:
  2230   001710  EF90  F00B         	goto	l2092
  2231   001714                     u1410:
  2232   001714  6C2E               	negf	___awmod@dividend^0,c
  2233   001716  1E2F               	comf	(___awmod@dividend+1)^0,f,c
  2234   001718  B0D8               	btfsc	status,0,c
  2235   00171A  2A2F               	incf	(___awmod@dividend+1)^0,f,c
  2236   00171C  0E01               	movlw	1
  2237   00171E  6E33               	movwf	___awmod@sign^0,c
  2238   001720                     l2092:
  2239   001720  BE31               	btfsc	(___awmod@divisor+1)^0,7,c
  2240   001722  EF97  F00B         	goto	u1420
  2241   001726  EF95  F00B         	goto	u1421
  2242   00172A                     u1421:
  2243   00172A  EF9B  F00B         	goto	l2096
  2244   00172E                     u1420:
  2245   00172E  6C30               	negf	___awmod@divisor^0,c
  2246   001730  1E31               	comf	(___awmod@divisor+1)^0,f,c
  2247   001732  B0D8               	btfsc	status,0,c
  2248   001734  2A31               	incf	(___awmod@divisor+1)^0,f,c
  2249   001736                     l2096:
  2250   001736  5030               	movf	___awmod@divisor^0,w,c
  2251   001738  1031               	iorwf	(___awmod@divisor+1)^0,w,c
  2252   00173A  B4D8               	btfsc	status,2,c
  2253   00173C  EFA2  F00B         	goto	u1431
  2254   001740  EFA4  F00B         	goto	u1430
  2255   001744                     u1431:
  2256   001744  EFC8  F00B         	goto	l2112
  2257   001748                     u1430:
  2258   001748  0E01               	movlw	1
  2259   00174A  6E32               	movwf	___awmod@counter^0,c
  2260   00174C  EFAC  F00B         	goto	l2102
  2261   001750                     l2100:
  2262   001750  90D8               	bcf	status,0,c
  2263   001752  3630               	rlcf	___awmod@divisor^0,f,c
  2264   001754  3631               	rlcf	(___awmod@divisor+1)^0,f,c
  2265   001756  2A32               	incf	___awmod@counter^0,f,c
  2266   001758                     l2102:
  2267   001758  AE31               	btfss	(___awmod@divisor+1)^0,7,c
  2268   00175A  EFB1  F00B         	goto	u1441
  2269   00175E  EFB3  F00B         	goto	u1440
  2270   001762                     u1441:
  2271   001762  EFA8  F00B         	goto	l2100
  2272   001766                     u1440:
  2273   001766                     l2104:
  2274   001766  5030               	movf	___awmod@divisor^0,w,c
  2275   001768  5C2E               	subwf	___awmod@dividend^0,w,c
  2276   00176A  5031               	movf	(___awmod@divisor+1)^0,w,c
  2277   00176C  582F               	subwfb	(___awmod@dividend+1)^0,w,c
  2278   00176E  A0D8               	btfss	status,0,c
  2279   001770  EFBC  F00B         	goto	u1451
  2280   001774  EFBE  F00B         	goto	u1450
  2281   001778                     u1451:
  2282   001778  EFC2  F00B         	goto	l2108
  2283   00177C                     u1450:
  2284   00177C  5030               	movf	___awmod@divisor^0,w,c
  2285   00177E  5E2E               	subwf	___awmod@dividend^0,f,c
  2286   001780  5031               	movf	(___awmod@divisor+1)^0,w,c
  2287   001782  5A2F               	subwfb	(___awmod@dividend+1)^0,f,c
  2288   001784                     l2108:
  2289   001784  90D8               	bcf	status,0,c
  2290   001786  3231               	rrcf	(___awmod@divisor+1)^0,f,c
  2291   001788  3230               	rrcf	___awmod@divisor^0,f,c
  2292   00178A  2E32               	decfsz	___awmod@counter^0,f,c
  2293   00178C  EFB3  F00B         	goto	l2104
  2294   001790                     l2112:
  2295   001790  5033               	movf	___awmod@sign^0,w,c
  2296   001792  B4D8               	btfsc	status,2,c
  2297   001794  EFCE  F00B         	goto	u1461
  2298   001798  EFD0  F00B         	goto	u1460
  2299   00179C                     u1461:
  2300   00179C  EFD4  F00B         	goto	l2116
  2301   0017A0                     u1460:
  2302   0017A0  6C2E               	negf	___awmod@dividend^0,c
  2303   0017A2  1E2F               	comf	(___awmod@dividend+1)^0,f,c
  2304   0017A4  B0D8               	btfsc	status,0,c
  2305   0017A6  2A2F               	incf	(___awmod@dividend+1)^0,f,c
  2306   0017A8                     l2116:
  2307   0017A8  C02E  F02E         	movff	___awmod@dividend,?___awmod
  2308   0017AC  C02F  F02F         	movff	___awmod@dividend+1,?___awmod+1
  2309   0017B0  0012               	return		;funcret
  2310   0017B2                     __end_of___awmod:
  2311                           	callstack 0
  2312                           
  2313 ;; *************** function ___awdiv *****************
  2314 ;; Defined at:
  2315 ;;		line 7 in file "C:\Program Files\Microchip\xc8\v2.41\pic\sources\c99\common\awdiv.c"
  2316 ;; Parameters:    Size  Location     Type
  2317 ;;  dividend        2    0[COMRAM] int 
  2318 ;;  divisor         2    2[COMRAM] int 
  2319 ;; Auto vars:     Size  Location     Type
  2320 ;;  quotient        2    6[COMRAM] int 
  2321 ;;  sign            1    5[COMRAM] unsigned char 
  2322 ;;  counter         1    4[COMRAM] unsigned char 
  2323 ;; Return value:  Size  Location     Type
  2324 ;;                  2    0[COMRAM] int 
  2325 ;; Registers used:
  2326 ;;		wreg, status,2, status,0
  2327 ;; Tracked objects:
  2328 ;;		On entry : 0/0
  2329 ;;		On exit  : 0/0
  2330 ;;		Unchanged: 0/0
  2331 ;; Data sizes:     COMRAM   BANK0   BANK1   BANK2   BANK3   BANK4   BANK5   BANK6   BANK7   BANK8   BANK9  BANK10  BANK1
      +1  BANK12  BANK13  BANK14  BANK15
  2332 ;;      Params:         4       0       0       0       0       0       0       0       0       0       0       0       
      +0       0       0       0       0
  2333 ;;      Locals:         4       0       0       0       0       0       0       0       0       0       0       0       
      +0       0       0       0       0
  2334 ;;      Temps:          0       0       0       0       0       0       0       0       0       0       0       0       
      +0       0       0       0       0
  2335 ;;      Totals:         8       0       0       0       0       0       0       0       0       0       0       0       
      +0       0       0       0       0
  2336 ;;Total ram usage:        8 bytes
  2337 ;; Hardware stack levels used: 1
  2338 ;; This function calls:
  2339 ;;		Nothing
  2340 ;; This function is called by:
  2341 ;;		_main
  2342 ;; This function uses a non-reentrant model
  2343 ;;
  2344                           
  2345                           	psect	text14
  2346   001586                     __ptext14:
  2347                           	callstack 0
  2348   001586                     ___awdiv:
  2349                           	callstack 30
  2350   001586  0E00               	movlw	0
  2351   001588  6E33               	movwf	___awdiv@sign^0,c
  2352   00158A  BE31               	btfsc	(___awdiv@divisor+1)^0,7,c
  2353   00158C  EFCC  F00A         	goto	u1350
  2354   001590  EFCA  F00A         	goto	u1351
  2355   001594                     u1351:
  2356   001594  EFD2  F00A         	goto	l2048
  2357   001598                     u1350:
  2358   001598  6C30               	negf	___awdiv@divisor^0,c
  2359   00159A  1E31               	comf	(___awdiv@divisor+1)^0,f,c
  2360   00159C  B0D8               	btfsc	status,0,c
  2361   00159E  2A31               	incf	(___awdiv@divisor+1)^0,f,c
  2362   0015A0  0E01               	movlw	1
  2363   0015A2  6E33               	movwf	___awdiv@sign^0,c
  2364   0015A4                     l2048:
  2365   0015A4  BE2F               	btfsc	(___awdiv@dividend+1)^0,7,c
  2366   0015A6  EFD9  F00A         	goto	u1360
  2367   0015AA  EFD7  F00A         	goto	u1361
  2368   0015AE                     u1361:
  2369   0015AE  EFDF  F00A         	goto	l2054
  2370   0015B2                     u1360:
  2371   0015B2  6C2E               	negf	___awdiv@dividend^0,c
  2372   0015B4  1E2F               	comf	(___awdiv@dividend+1)^0,f,c
  2373   0015B6  B0D8               	btfsc	status,0,c
  2374   0015B8  2A2F               	incf	(___awdiv@dividend+1)^0,f,c
  2375   0015BA  0E01               	movlw	1
  2376   0015BC  1A33               	xorwf	___awdiv@sign^0,f,c
  2377   0015BE                     l2054:
  2378   0015BE  0E00               	movlw	0
  2379   0015C0  6E35               	movwf	(___awdiv@quotient+1)^0,c
  2380   0015C2  0E00               	movlw	0
  2381   0015C4  6E34               	movwf	___awdiv@quotient^0,c
  2382   0015C6  5030               	movf	___awdiv@divisor^0,w,c
  2383   0015C8  1031               	iorwf	(___awdiv@divisor+1)^0,w,c
  2384   0015CA  B4D8               	btfsc	status,2,c
  2385   0015CC  EFEA  F00A         	goto	u1371
  2386   0015D0  EFEC  F00A         	goto	u1370
  2387   0015D4                     u1371:
  2388   0015D4  EF14  F00B         	goto	l2076
  2389   0015D8                     u1370:
  2390   0015D8  0E01               	movlw	1
  2391   0015DA  6E32               	movwf	___awdiv@counter^0,c
  2392   0015DC  EFF4  F00A         	goto	l2062
  2393   0015E0                     l2060:
  2394   0015E0  90D8               	bcf	status,0,c
  2395   0015E2  3630               	rlcf	___awdiv@divisor^0,f,c
  2396   0015E4  3631               	rlcf	(___awdiv@divisor+1)^0,f,c
  2397   0015E6  2A32               	incf	___awdiv@counter^0,f,c
  2398   0015E8                     l2062:
  2399   0015E8  AE31               	btfss	(___awdiv@divisor+1)^0,7,c
  2400   0015EA  EFF9  F00A         	goto	u1381
  2401   0015EE  EFFB  F00A         	goto	u1380
  2402   0015F2                     u1381:
  2403   0015F2  EFF0  F00A         	goto	l2060
  2404   0015F6                     u1380:
  2405   0015F6                     l2064:
  2406   0015F6  90D8               	bcf	status,0,c
  2407   0015F8  3634               	rlcf	___awdiv@quotient^0,f,c
  2408   0015FA  3635               	rlcf	(___awdiv@quotient+1)^0,f,c
  2409   0015FC  5030               	movf	___awdiv@divisor^0,w,c
  2410   0015FE  5C2E               	subwf	___awdiv@dividend^0,w,c
  2411   001600  5031               	movf	(___awdiv@divisor+1)^0,w,c
  2412   001602  582F               	subwfb	(___awdiv@dividend+1)^0,w,c
  2413   001604  A0D8               	btfss	status,0,c
  2414   001606  EF07  F00B         	goto	u1391
  2415   00160A  EF09  F00B         	goto	u1390
  2416   00160E                     u1391:
  2417   00160E  EF0E  F00B         	goto	l2072
  2418   001612                     u1390:
  2419   001612  5030               	movf	___awdiv@divisor^0,w,c
  2420   001614  5E2E               	subwf	___awdiv@dividend^0,f,c
  2421   001616  5031               	movf	(___awdiv@divisor+1)^0,w,c
  2422   001618  5A2F               	subwfb	(___awdiv@dividend+1)^0,f,c
  2423   00161A  8034               	bsf	___awdiv@quotient^0,0,c
  2424   00161C                     l2072:
  2425   00161C  90D8               	bcf	status,0,c
  2426   00161E  3231               	rrcf	(___awdiv@divisor+1)^0,f,c
  2427   001620  3230               	rrcf	___awdiv@divisor^0,f,c
  2428   001622  2E32               	decfsz	___awdiv@counter^0,f,c
  2429   001624  EFFB  F00A         	goto	l2064
  2430   001628                     l2076:
  2431   001628  5033               	movf	___awdiv@sign^0,w,c
  2432   00162A  B4D8               	btfsc	status,2,c
  2433   00162C  EF1A  F00B         	goto	u1401
  2434   001630  EF1C  F00B         	goto	u1400
  2435   001634                     u1401:
  2436   001634  EF20  F00B         	goto	l2080
  2437   001638                     u1400:
  2438   001638  6C34               	negf	___awdiv@quotient^0,c
  2439   00163A  1E35               	comf	(___awdiv@quotient+1)^0,f,c
  2440   00163C  B0D8               	btfsc	status,0,c
  2441   00163E  2A35               	incf	(___awdiv@quotient+1)^0,f,c
  2442   001640                     l2080:
  2443   001640  C034  F02E         	movff	___awdiv@quotient,?___awdiv
  2444   001644  C035  F02F         	movff	___awdiv@quotient+1,?___awdiv+1
  2445   001648  0012               	return		;funcret
  2446   00164A                     __end_of___awdiv:
  2447                           	callstack 0
  2448                           
  2449                           	psect	rparam
  2450   000000                     
  2451                           	psect	config
  2452                           
  2453                           ; Padding undefined space
  2454   300000                     	org	3145728
  2455   300000  FF                 	db	255
  2456                           
  2457                           ;Config register CONFIG1H @ 0x300001
  2458                           ;	Oscillator Selection bits
  2459                           ;	OSC = HS, HS oscillator
  2460                           ;	Fail-Safe Clock Monitor Enable bit
  2461                           ;	FCMEN = OFF, Fail-Safe Clock Monitor disabled
  2462                           ;	Internal/External Oscillator Switchover bit
  2463                           ;	IESO = OFF, Oscillator Switchover mode disabled
  2464   300001                     	org	3145729
  2465   300001  02                 	db	2
  2466                           
  2467                           ;Config register CONFIG2L @ 0x300002
  2468                           ;	Power-up Timer Enable bit
  2469                           ;	PWRT = OFF, PWRT disabled
  2470                           ;	Brown-out Reset Enable bits
  2471                           ;	BOREN = OFF, Brown-out Reset disabled in hardware and software
  2472                           ;	Brown Out Reset Voltage bits
  2473                           ;	BORV = 1, 
  2474   300002                     	org	3145730
  2475   300002  09                 	db	9
  2476                           
  2477                           ;Config register CONFIG2H @ 0x300003
  2478                           ;	Watchdog Timer Enable bit
  2479                           ;	WDT = OFF, WDT disabled (control is placed on the SWDTEN bit)
  2480                           ;	Watchdog Timer Postscale Select bits
  2481                           ;	WDTPS = 32768, 1:32768
  2482   300003                     	org	3145731
  2483   300003  1E                 	db	30
  2484                           
  2485                           ; Padding undefined space
  2486   300004                     	org	3145732
  2487   300004  FF                 	db	255
  2488                           
  2489                           ;Config register CONFIG3H @ 0x300005
  2490                           ;	CCP2 MUX bit
  2491                           ;	CCP2MX = PORTC, CCP2 input/output is multiplexed with RC1
  2492                           ;	PORTB A/D Enable bit
  2493                           ;	PBADEN = OFF, PORTB<4:0> pins are configured as digital I/O on Reset
  2494                           ;	Low-Power Timer1 Oscillator Enable bit
  2495                           ;	LPT1OSC = OFF, Timer1 configured for higher power operation
  2496                           ;	MCLR Pin Enable bit
  2497                           ;	MCLRE = ON, MCLR pin enabled; RE3 input pin disabled
  2498   300005                     	org	3145733
  2499   300005  81                 	db	129
  2500                           
  2501                           ;Config register CONFIG4L @ 0x300006
  2502                           ;	Stack Full/Underflow Reset Enable bit
  2503                           ;	STVREN = ON, Stack full/underflow will cause Reset
  2504                           ;	Single-Supply ICSP Enable bit
  2505                           ;	LVP = OFF, Single-Supply ICSP disabled
  2506                           ;	Extended Instruction Set Enable bit
  2507                           ;	XINST = OFF, Instruction set extension and Indexed Addressing mode disabled (Legacy mo
      +                          de)
  2508                           ;	Background Debugger Enable bit
  2509                           ;	DEBUG = 0x1, unprogrammed default
  2510   300006                     	org	3145734
  2511   300006  81                 	db	129
  2512                           
  2513                           ; Padding undefined space
  2514   300007                     	org	3145735
  2515   300007  FF                 	db	255
  2516                           
  2517                           ;Config register CONFIG5L @ 0x300008
  2518                           ;	Code Protection bit
  2519                           ;	CP0 = OFF, Block 0 (000800-003FFFh) not code-protected
  2520                           ;	Code Protection bit
  2521                           ;	CP1 = OFF, Block 1 (004000-007FFFh) not code-protected
  2522                           ;	Code Protection bit
  2523                           ;	CP2 = OFF, Block 2 (008000-00BFFFh) not code-protected
  2524                           ;	Code Protection bit
  2525                           ;	CP3 = OFF, Block 3 (00C000-00FFFFh) not code-protected
  2526   300008                     	org	3145736
  2527   300008  0F                 	db	15
  2528                           
  2529                           ;Config register CONFIG5H @ 0x300009
  2530                           ;	Boot Block Code Protection bit
  2531                           ;	CPB = OFF, Boot block (000000-0007FFh) not code-protected
  2532                           ;	Data EEPROM Code Protection bit
  2533                           ;	CPD = OFF, Data EEPROM not code-protected
  2534   300009                     	org	3145737
  2535   300009  C0                 	db	192
  2536                           
  2537                           ;Config register CONFIG6L @ 0x30000A
  2538                           ;	Write Protection bit
  2539                           ;	WRT0 = OFF, Block 0 (000800-003FFFh) not write-protected
  2540                           ;	Write Protection bit
  2541                           ;	WRT1 = OFF, Block 1 (004000-007FFFh) not write-protected
  2542                           ;	Write Protection bit
  2543                           ;	WRT2 = OFF, Block 2 (008000-00BFFFh) not write-protected
  2544                           ;	Write Protection bit
  2545                           ;	WRT3 = OFF, Block 3 (00C000-00FFFFh) not write-protected
  2546   30000A                     	org	3145738
  2547   30000A  0F                 	db	15
  2548                           
  2549                           ;Config register CONFIG6H @ 0x30000B
  2550                           ;	Configuration Register Write Protection bit
  2551                           ;	WRTC = OFF, Configuration registers (300000-3000FFh) not write-protected
  2552                           ;	Boot Block Write Protection bit
  2553                           ;	WRTB = OFF, Boot Block (000000-0007FFh) not write-protected
  2554                           ;	Data EEPROM Write Protection bit
  2555                           ;	WRTD = OFF, Data EEPROM not write-protected
  2556   30000B                     	org	3145739
  2557   30000B  E0                 	db	224
  2558                           
  2559                           ;Config register CONFIG7L @ 0x30000C
  2560                           ;	Table Read Protection bit
  2561                           ;	EBTR0 = OFF, Block 0 (000800-003FFFh) not protected from table reads executed in other
      +                           blocks
  2562                           ;	Table Read Protection bit
  2563                           ;	EBTR1 = OFF, Block 1 (004000-007FFFh) not protected from table reads executed in other
      +                           blocks
  2564                           ;	Table Read Protection bit
  2565                           ;	EBTR2 = OFF, Block 2 (008000-00BFFFh) not protected from table reads executed in other
      +                           blocks
  2566                           ;	Table Read Protection bit
  2567                           ;	EBTR3 = OFF, Block 3 (00C000-00FFFFh) not protected from table reads executed in other
      +                           blocks
  2568   30000C                     	org	3145740
  2569   30000C  0F                 	db	15
  2570                           
  2571                           ;Config register CONFIG7H @ 0x30000D
  2572                           ;	Boot Block Table Read Protection bit
  2573                           ;	EBTRB = OFF, Boot Block (000000-0007FFh) not protected from table reads executed in ot
      +                          her blocks
  2574   30000D                     	org	3145741
  2575   30000D  40                 	db	64
  2576                           tosu	equ	0xFFF
  2577                           tosh	equ	0xFFE
  2578                           tosl	equ	0xFFD
  2579                           stkptr	equ	0xFFC
  2580                           pclatu	equ	0xFFB
  2581                           pclath	equ	0xFFA
  2582                           pcl	equ	0xFF9
  2583                           tblptru	equ	0xFF8
  2584                           tblptrh	equ	0xFF7
  2585                           tblptrl	equ	0xFF6
  2586                           tablat	equ	0xFF5
  2587                           prodh	equ	0xFF4
  2588                           prodl	equ	0xFF3
  2589                           indf0	equ	0xFEF
  2590                           postinc0	equ	0xFEE
  2591                           postdec0	equ	0xFED
  2592                           preinc0	equ	0xFEC
  2593                           plusw0	equ	0xFEB
  2594                           fsr0h	equ	0xFEA
  2595                           fsr0l	equ	0xFE9
  2596                           wreg	equ	0xFE8
  2597                           indf1	equ	0xFE7
  2598                           postinc1	equ	0xFE6
  2599                           postdec1	equ	0xFE5
  2600                           preinc1	equ	0xFE4
  2601                           plusw1	equ	0xFE3
  2602                           fsr1h	equ	0xFE2
  2603                           fsr1l	equ	0xFE1
  2604                           bsr	equ	0xFE0
  2605                           indf2	equ	0xFDF
  2606                           postinc2	equ	0xFDE
  2607                           postdec2	equ	0xFDD
  2608                           preinc2	equ	0xFDC
  2609                           plusw2	equ	0xFDB
  2610                           fsr2h	equ	0xFDA
  2611                           fsr2l	equ	0xFD9
  2612                           status	equ	0xFD8

Data Sizes:
    Strings     0
    Constant    16
    Data        45
    BSS         10
    Persistent  1
    Stack       0

Auto Spaces:
    Space          Size  Autos    Used
    COMRAM          127     20      76
    BANK0           128      0       0
    BANK1           256      0       0
    BANK2           256      0       0
    BANK3           256      0       0
    BANK4           256      0       0
    BANK5           256      0       0
    BANK6           256      0       0
    BANK7           256      0       0
    BANK8           256      0       0
    BANK9           256      0       0
    BANK10          256      0       0
    BANK11          256      0       0
    BANK12          256      0       0
    BANK13          256      0       0
    BANK14          256      0       0
    BANK15          128      0       0

Pointer List with Targets:

    gpio_pin_initialize@pin_config	PTR const struct . size(2) Largest target is 5
		 -> seven_seg1.segment_pins(COMRAM[4]), seven_seg1(COMRAM[5]), relay_intialize@pin_obj(COMRAM[1]), led_intialize@pin_obj(COMRAM[1]), 

    gpio_pin_read_logic@logic	PTR enum E2805 size(2) Largest target is 1
		 -> keypad_get_value@column_value(COMRAM[1]), button_read_state@pin_logic_status(COMRAM[1]), 

    gpio_pin_read_logic@pin_config	PTR const struct . size(2) Largest target is 3
		 -> min_btn(COMRAM[3]), hr_btn(COMRAM[3]), 

    gpio_pin_write_logic@pin_config	PTR const struct . size(2) Largest target is 5
		 -> seven_seg1.segment_pins(COMRAM[4]), seven_seg1(COMRAM[5]), relay_turn_off@pin_obj(COMRAM[1]), relay_turn_on@pin_obj(COMRAM[1]), 
		 -> relay_intialize@pin_obj(COMRAM[1]), led_turn_off@pin_obj(COMRAM[1]), led_turn_on@pin_obj(COMRAM[1]), led_intialize@pin_obj(COMRAM[1]), 

    gpio_pin_direction_initialize@pin_config	PTR const struct . size(2) Largest target is 5
		 -> seven_seg1.segment_pins(COMRAM[4]), seven_seg1(COMRAM[5]), min_btn(COMRAM[3]), hr_btn(COMRAM[3]), 
		 -> relay_intialize@pin_obj(COMRAM[1]), led_intialize@pin_obj(COMRAM[1]), 

    port_reg	PTR volatile unsigned char [5] size(2) Largest target is 1
		 -> PORTE(BITBIGSFRll[1]), PORTD(BITBIGSFRll[1]), PORTC(BITBIGSFRll[1]), PORTB(BITBIGSFRll[1]), 
		 -> PORTA(BITBIGSFRll[1]), 

    lat_reg	PTR volatile unsigned char [5] size(2) Largest target is 1
		 -> LATE(BITBIGSFRlh[1]), LATD(BITBIGSFRlh[1]), LATC(BITBIGSFRlh[1]), LATB(BITBIGSFRlh[1]), 
		 -> LATA(BITBIGSFRll[1]), 

    tris_reg	PTR volatile unsigned char [5] size(2) Largest target is 1
		 -> TRISE(BITBIGSFRh[1]), TRISD(BITBIGSFRh[1]), TRISC(BITBIGSFRh[1]), TRISB(BITBIGSFRh[1]), 
		 -> TRISA(BITBIGSFRll[1]), 

    led_intialize@led	PTR const struct . size(2) Largest target is 1
		 -> led1(COMRAM[1]), 

    button_read_state@btn_state	PTR enum E2861 size(2) Largest target is 1
		 -> min_value(COMRAM[1]), hr_value(COMRAM[1]), 

    button_read_state@btn	PTR const struct . size(2) Largest target is 3
		 -> min_btn(COMRAM[3]), hr_btn(COMRAM[3]), 

    button_initialize@btn	PTR const struct . size(2) Largest target is 3
		 -> min_btn(COMRAM[3]), hr_btn(COMRAM[3]), 

    seven_segment_intialize@segment	PTR const struct . size(2) Largest target is 5
		 -> seven_seg1(COMRAM[5]), 


Critical Paths under _main in COMRAM

    _gpio_port_write_logic->___awdiv
    _button_read_state->_gpio_pin_read_logic
    _ecu_layer_intialize->_led_intialize
    _seven_segment_intialize->_gpio_pin_initialize
    _led_intialize->_gpio_pin_initialize
    _gpio_pin_initialize->_gpio_pin_write_logic
    _button_initialize->_gpio_pin_direction_initialize

Critical Paths under _main in BANK0

    None.

Critical Paths under _main in BANK1

    None.

Critical Paths under _main in BANK2

    None.

Critical Paths under _main in BANK3

    None.

Critical Paths under _main in BANK4

    None.

Critical Paths under _main in BANK5

    None.

Critical Paths under _main in BANK6

    None.

Critical Paths under _main in BANK7

    None.

Critical Paths under _main in BANK8

    None.

Critical Paths under _main in BANK9

    None.

Critical Paths under _main in BANK10

    None.

Critical Paths under _main in BANK11

    None.

Critical Paths under _main in BANK12

    None.

Critical Paths under _main in BANK13

    None.

Critical Paths under _main in BANK14

    None.

Critical Paths under _main in BANK15

    None.

Call Graph Tables:

 ---------------------------------------------------------------------------------
 (Depth) Function   	        Calls       Base Space   Used Autos Params    Refs
 ---------------------------------------------------------------------------------
 (0) _main                                                 1     1      0   13737
                                             19 COMRAM     1     1      0
                            ___awdiv
                            ___awmod
              _application_intialize
                  _button_read_state
              _gpio_port_write_logic
 ---------------------------------------------------------------------------------
 (1) _gpio_port_write_logic                                5     4      1    1002
                                              8 COMRAM     5     4      1
                            ___awdiv (ARG)
                            ___awmod (ARG)
 ---------------------------------------------------------------------------------
 (1) _button_read_state                                    7     3      4    1100
                                             10 COMRAM     7     3      4
                _gpio_pin_read_logic
 ---------------------------------------------------------------------------------
 (2) _gpio_pin_read_logic                                 10     6      4     460
                                              0 COMRAM    10     6      4
 ---------------------------------------------------------------------------------
 (1) _application_intialize                                1     1      0   10127
                _ecu_layer_intialize
 ---------------------------------------------------------------------------------
 (2) _ecu_layer_intialize                                  1     1      0   10126
                  _button_initialize
     _gpio_port_direction_initialize
                      _led_intialize
            _seven_segment_intialize
 ---------------------------------------------------------------------------------
 (3) _seven_segment_intialize                              3     1      2    4655
                                             14 COMRAM     3     1      2
                _gpio_pin_initialize
 ---------------------------------------------------------------------------------
 (3) _led_intialize                                        5     3      2    4673
                                             14 COMRAM     5     3      2
                _gpio_pin_initialize
 ---------------------------------------------------------------------------------
 (4) _gpio_pin_initialize                                  4     2      2    4445
                                             10 COMRAM     4     2      2
      _gpio_pin_direction_initialize
               _gpio_pin_write_logic
 ---------------------------------------------------------------------------------
 (5) _gpio_pin_write_logic                                10     7      3    2763
                                              0 COMRAM    10     7      3
 ---------------------------------------------------------------------------------
 (3) _gpio_port_direction_initialize                       5     4      1     166
                                              0 COMRAM     5     4      1
 ---------------------------------------------------------------------------------
 (3) _button_initialize                                    3     1      2     626
                                              9 COMRAM     3     1      2
      _gpio_pin_direction_initialize
 ---------------------------------------------------------------------------------
 (5) _gpio_pin_direction_initialize                        9     7      2     406
                                              0 COMRAM     9     7      2
 ---------------------------------------------------------------------------------
 (1) ___awmod                                              6     2      4     752
                                              0 COMRAM     6     2      4
 ---------------------------------------------------------------------------------
 (1) ___awdiv                                              8     4      4     756
                                              0 COMRAM     8     4      4
 ---------------------------------------------------------------------------------
 Estimated maximum stack depth 5
 ---------------------------------------------------------------------------------

 Call Graph Graphs:

 _main (ROOT)
   ___awdiv
   ___awmod
   _application_intialize
     _ecu_layer_intialize
       _button_initialize
         _gpio_pin_direction_initialize
       _gpio_port_direction_initialize
       _led_intialize
         _gpio_pin_initialize
           _gpio_pin_direction_initialize
           _gpio_pin_write_logic
       _seven_segment_intialize
         _gpio_pin_initialize
   _button_read_state
     _gpio_pin_read_logic
   _gpio_port_write_logic
     ___awdiv (ARG)
     ___awmod (ARG)

 Address spaces:
Name               Size   Autos  Total    Cost      Usage
BIGRAM             F7F      0       0      40        0.0%
EEDATA             400      0       0       0        0.0%
BITBANK14          100      0       0      32        0.0%
BANK14             100      0       0      33        0.0%
BITBANK13          100      0       0      30        0.0%
BANK13             100      0       0      31        0.0%
BITBANK12          100      0       0      28        0.0%
BANK12             100      0       0      29        0.0%
BITBANK11          100      0       0      26        0.0%
BANK11             100      0       0      27        0.0%
BITBANK10          100      0       0      24        0.0%
BANK10             100      0       0      25        0.0%
BITBANK9           100      0       0      22        0.0%
BANK9              100      0       0      23        0.0%
BITBANK8           100      0       0      20        0.0%
BANK8              100      0       0      21        0.0%
BITBANK7           100      0       0      18        0.0%
BANK7              100      0       0      19        0.0%
BITBANK6           100      0       0      16        0.0%
BANK6              100      0       0      17        0.0%
BITBANK5           100      0       0      14        0.0%
BANK5              100      0       0      15        0.0%
BITBANK4           100      0       0      12        0.0%
BANK4              100      0       0      13        0.0%
BITBANK3           100      0       0      10        0.0%
BANK3              100      0       0      11        0.0%
BITBANK2           100      0       0       8        0.0%
BANK2              100      0       0       9        0.0%
BITBANK1           100      0       0       6        0.0%
BANK1              100      0       0       7        0.0%
BITBANK15           80      0       0      34        0.0%
BANK15              80      0       0      35        0.0%
BITBANK0            80      0       0       4        0.0%
BANK0               80      0       0       5        0.0%
BITCOMRAM           7F      0       0       0        0.0%
COMRAM              7F     14      4C       1       59.8%
BITBIGSFRh          69      0       0      36        0.0%
BITBIGSFRlh          4      0       0      37        0.0%
BITBIGSFRll          4      0       0      38        0.0%
BIGSFR               0      0       0     200        0.0%
BITSFR               0      0       0     200        0.0%
SFR                  0      0       0     200        0.0%
STACK                0      0       0       2        0.0%
NULL                 0      0       0       0        0.0%
ABS                  0      0      4C      39        0.0%
DATA                 0      0      4C       3        0.0%
CODE                 0      0       0       0        0.0%


Microchip Technology PIC18 Macro Assembler V2.41 build 20230208172133 
Symbol Table                                                                                   Sun Dec 03 19:29:47 2023

                          _led_intialize 17B2                                        l9 18FA  
                                     l31 1582                                       l25 1A26  
                                     l42 1584                             ___awdiv@sign 0033  
                                     _hr 001F                                      l112 1830  
                                    l108 17D0                                      l205 136E  
                                    l231 1700                                      l224 149A  
                                    l320 1A5A                                      l250 1986  
                                    l307 1016                                      l245 189C  
                                    l262 1940                                      l339 19C2  
                                    l671 17B0                                      l658 1648  
          gpio_pin_initialize@pin_config 0038                                      _min 0020  
                                    _sec 0021                                      _ret 004C  
                           ___awmod@sign 0033                                      prod 0FF3  
                                    wreg 0FE8                                     l2000 14E0  
                                   l2002 14FC                                     l2010 153A  
                                   l2100 1750                                     l2012 1556  
                                   l2020 157E                                     l2004 150C  
                                   l2110 178A                                     l2102 1758  
                                   l2006 151A                                     l2030 191A  
                                   l2040 1586                                     l2104 1766  
                                   l2112 1790                                     l2016 156A  
                                   l2008 152A                                     l2032 193E  
                                   l2024 18FE                                     l2050 15B2  
                                   l2042 158A                                     l2114 17A0  
                                   l2106 177C                                     l2026 1902  
                                   l2060 15E0                                     l2052 15BA  
                                   l2044 1598                                     l2116 17A8  
                                   l2108 1784                                     l2036 1A56  
                                   l2028 1912                                     l2070 161A  
                                   l2062 15E8                                     l2054 15BE  
                                   l2046 15A0                                     l2038 1A56  
                                   l2080 1640                                     l2072 161C  
                                   l2064 15F6                                     l2056 15C6  
                                   l2048 15A4                                     l2074 1622  
                                   l2066 15FC                                     l2058 15D8  
                                   l2090 171C                                     l2330 1012  
                                   l2068 1612                                     l2076 1628  
                                   l2092 1720                                     l2084 1702  
                                   l2340 1066                                     l2332 1042  
                                   l2078 1638                                     l2094 172E  
                                   l2086 1706                                     l2350 1098  
                                   l2342 106A                                     l2334 1052  
                                   l2096 1736                                     l2088 1714  
                                   l2360 111C                                     l2352 10A8  
                                   l2336 1054                                     l2098 1748  
                                   l2370 119C                                     l2362 1128  
                                   l2354 10B4                                     l2338 1064  
                                   l2444 1482                                     l1900 1866  
                                   l2380 11DE                                     l2372 11BA  
                                   l2364 1146                                     l2356 10D2  
                                   l2348 106E                                     l2446 1356  
                                   l1902 186E                                     l1910 18A2  
                                   l2390 120A                                     l2382 11F0  
                                   l2374 11CA                                     l2366 1180  
                                   l2358 110C                                     l1920 19FA  
                                   l1904 189A                                     l1912 18B4  
                                   l2392 120E                                     l2384 11F2  
                                   l2376 11CC                                     l2368 1190  
                                   l1922 19FE                                     l1850 1386  
                                   l1914 18BC                                     l2394 1220  
                                   l2386 11F6                                     l2378 11DC  
                                   l1924 1A10                                     l1860 146E  
                                   l1852 13A8                                     l1940 180E  
                                   l1932 17B2                                     l1916 18F8  
                                   l1908 189E                                     l2388 1208  
                                   l1870 122C                                     l1926 1A18  
                                   l1950 1944                                     l1854 13B0  
                                   l1862 1498                                     l1846 1370  
                                   l1942 1810                                     l1934 17B6  
                                   l1880 12CE                                     l1872 1230  
                                   l1928 1A24                                     l1952 1948  
                                   l1856 1412                                     l1848 1374  
                                   l1944 1822                                     l1936 17C8  
                                   l1874 1242                                     l1954 1958  
                                   l1938 17D4                                     l1946 182E  
                                   l1970 1694                                     l1962 164A  
                                   l1884 132A                                     l1876 1264  
                                   l1956 1960                                     l1980 1988  
                                   l1972 169C                                     l1964 164E  
                                   l1878 126C                                     l1886 136C  
                                   l1958 1984                                     l1894 1832  
                                   l1982 1994                                     l1974 16FE  
                                   l1966 1660                                     l1990 149C  
                                   l1896 1832                                     l1984 199E  
                                   l1968 1672                                     l1992 14A0  
                                   l1898 1844                                     l1986 19AA  
                                   l1978 1988                                     l1994 14B2  
                                   l1988 19B6                                     l1996 14C4  
                                   l1998 14CC                                     u1100 1264  
                                   u1101 1260                                     u1130 1342  
                                   u1114 128C                                     u1210 1958  
                                   u1050 1386                                     u1131 133C  
                                   u1115 1288                                     u1211 1954  
                                   u1051 1382                                     u1140 1344  
                                   u1124 12EE                                     u1060 13A8  
                                   u1220 1660                                     u1300 152A  
                                   u1125 12EA                                     u1061 13A4  
                                   u1205 1820                                     u1221 165C  
                                   u1301 1526                                     u1150 1844  
                                   u1230 1672                                     u1310 1556  
                                   u1151 1840                                     u1207 1822  
                                   u1231 166E                                     u1311 1552  
                                   u1400 1638                                     u1160 1866  
                                   u1240 1694                                     u1320 1566  
                                   u1401 1634                                     u1161 1862  
                                   u1241 1690                                     u1321 1562  
                                   u1410 1714                                     u1090 1242  
                                   u1074 13D0                                     u1170 18B4  
                                   u1330 157A                                     u1411 1710  
                                   u1091 123E                                     u1075 13CC  
                                   u1171 18B0                                     u1331 1576  
                                   u1420 172E                                     u1180 1A10  
                                   u1084 1432                                     u1260 14B2  
                                   u1340 1912                                     u1421 172A  
                                   u1181 1A0C                                     u1085 142E  
                                   u1261 14AE                                     u1341 190E  
                                   _LATA 0F89                                     u1350 1598  
                                   u1430 1748                                     u1190 17C8  
                                   u1254 16EA                                     u1270 14C4  
                                   _LATB 0F8A                                     u1351 1594  
                                   u1431 1744                                     u1191 17C4  
                                   u1255 16E6                                     u1271 14C0  
                                   _LATC 0F8B                                     u1360 15B2  
                                   u1440 1766                                     u1280 14FC  
                                   _LATD 0F8C                                     u1361 15AE  
                                   u1441 1762                                     u1281 14F8  
                                   _LATE 0F8D                                     u1370 15D8  
                                   u1450 177C                                     u1290 150C  
                                   u1371 15D4                                     u1451 1778  
                                   u1291 1508                                     u1380 15F6  
                                   u1460 17A0                                     u1381 15F2  
                                   u1461 179C                                     u1390 1612  
                                   u1391 160E                                     u1720 1052  
                                   u1721 104E                                     u1730 1064  
                                   u1731 1060                                     u1740 11DC  
                                   u1741 11D8                                     u1750 11F0  
                                   u1751 11EC                                     u1760 1208  
                                   u1761 1204                                     u1770 1220  
                                   u1771 121C                                     u1827 109E  
                                   u1837 10D8                                     u1847 1112  
                                   u1857 114C                                     u1867 1186  
                                   u1877 11C0                  ??_application_intialize 0041  
                                   _led1 002D                                     _main 1012  
                                   fsr2h 0FDA                                     indf2 0FDF  
                                   fsr1l 0FE1                                     fsr2l 0FD9  
                                   prodl 0FF3                                     start 0000  
                         ?_led_intialize 003C                             ___param_bank 0000  
                  _gpio_port_write_logic 18FC                     _gpio_pin_write_logic 1370  
                                  ?_main 002E                          __end_of___awdiv 164A  
                        __end_of___awmod 17B2                          ___awdiv@divisor 0030  
                        ___awdiv@counter 0032                      relay_turn_off@F2890 0043  
                                  _PORTA 0F80                                    _PORTB 0F81  
                                  _PORTC 0F82                                    _PORTD 0F83  
                                  _PORTE 0F84                                    _TRISA 0F92  
                                  _TRISB 0F93                                    _TRISC 0F94  
                                  _TRISD 0F95                                    _TRISE 0F96  
                                  tablat 0FF5                                    status 0FD8  
         ?_gpio_pin_direction_initialize 002E                          __initialization 19C4  
                           __end_of_main 122C            gpio_pin_read_logic@pin_config 002E  
                  ?_gpio_pin_write_logic 002E                 gpio_pin_read_logic@logic 0030  
                                 ??_main 0041                            __activetblptr 0002  
                       led_turn_on@F2887 0048                        _button_initialize 19FA  
                      _button_read_state 149C                         ___awdiv@dividend 002E  
                     ?_button_initialize 0037                       ?_button_read_state 0038  
                _seven_segment_intialize 189E                gpio_port_write_logic@port 003A  
                        ??_led_intialize 003E                      ??_button_initialize 0039  
 __end_of_gpio_port_direction_initialize 1988           _gpio_port_direction_initialize 1942  
                    ??_button_read_state 003C                   ?_gpio_port_write_logic 0036  
                              ??___awdiv 0032                                ??___awmod 0032  
                       led_intialize@led 003C                                   _hr_btn 002A  
                       led_intialize@ret 003F                                   clear_0 19EA  
                       ___awdiv@quotient 0034                          ___awmod@divisor 0030  
                                 isa$std 0001                          ___awmod@counter 0032  
                           __pdataCOMRAM 0001                __end_of_button_initialize 1A28  
                           __mediumconst 0000                __end_of_button_read_state 1586  
                                 tblptrh 0FF7                                   tblptrl 0FF6  
                                 tblptru 0FF8                               __accesstop 0080  
                __end_of__initialization 19F0                            ___rparam_used 0001  
                 ??_gpio_pin_write_logic 0031               seven_segment_intialize@ret 003E  
                         __pcstackCOMRAM 002E                     button_initialize@btn 0037  
                   button_initialize@ret 0039                 gpio_port_write_logic@ret 0039  
              ??_seven_segment_intialize 003E                               __pnvCOMRAM 004C  
          __end_of_application_intialize 1A5C                     relay_intialize@F2880 0045  
                   button_read_state@btn 0038                     button_read_state@ret 003D  
                      led_turn_off@F2892 0047                          led_toggle@F2897 0046  
                             _btn_values 1001                                  __Hparam 0000  
                                __Lparam 0000                      _ecu_layer_intialize 1988  
                   led_intialize@pin_obj 0040                      _gpio_pin_initialize 1832  
                    _gpio_pin_read_logic 164A                                  ___awdiv 1586  
                                ___awmod 1702          __end_of_seven_segment_intialize 18FC  
                           __psmallconst 1000                                  __pcinit 19C4  
                                __ramtop 1000           seven_segment_intialize@segment 003C  
                                __ptext0 1012                                  __ptext1 18FC  
                                __ptext2 149C                                  __ptext3 164A  
                                __ptext4 1A56                                  __ptext5 1988  
                                __ptext6 189E                                  __ptext7 17B2  
                                __ptext8 1832                                  __ptext9 1370  
                                _lat_reg 000B          ??_gpio_pin_direction_initialize 0030  
                                _counter 0042                                  _min_btn 0027  
                       ___awmod@dividend 002E                     ?_ecu_layer_intialize 002E  
                   ?_gpio_pin_initialize 0038                     ?_gpio_pin_read_logic 002E  
                   end_of_initialization 19F0        gpio_port_direction_initialize@ret 0031  
                          __Lmediumconst 0000                  ??_gpio_port_write_logic 0037  
                                postdec1 0FE5                                  postdec2 0FDD  
                                postinc0 0FEE                                  postinc2 0FDE  
                             _seven_seg1 0022               button_read_state@btn_state 003A  
                  ??_ecu_layer_intialize 0041                    ??_gpio_pin_initialize 003A  
                  ??_gpio_pin_read_logic 0032                    __end_of_led_intialize 1832  
                     relay_turn_on@F2885 0044  gpio_port_direction_initialize@direction 002E  
                          __pidataCOMRAM 1A28                      start_initialization 19C4  
  __end_of_gpio_pin_direction_initialize 1370            _gpio_pin_direction_initialize 122C  
                            __pbssCOMRAM 0042           gpio_pin_write_logic@pin_config 002E  
                  _application_intialize 1A56                                 ?___awdiv 002E  
                               ?___awmod 002E        button_read_state@pin_logic_status 003E  
              gpio_pin_write_logic@logic 0030                              __smallconst 1000  
               ?_seven_segment_intialize 003C                                _min_value 004A  
          __end_of_gpio_port_write_logic 1942         gpio_pin_direction_initialize@ret 0036  
gpio_pin_direction_initialize@pin_config 002E                   gpio_pin_initialize@ret 003B  
                gpio_pin_write_logic@ret 0037                                copy_data0 19D8  
                 gpio_pin_read_logic@ret 0037                   ?_application_intialize 002E  
                               __Hrparam 0000                                 __Lrparam 0000  
            __end_of_ecu_layer_intialize 19C4              __end_of_gpio_pin_initialize 189E  
                     __end_of_btn_values 1011              __end_of_gpio_pin_read_logic 1702  
                     led_intialize@F2882 0049                                 __ptext10 1942  
                               __ptext11 19FA                                 __ptext12 122C  
                               __ptext13 1702                                 __ptext14 1586  
                               _hr_value 004B                                 isa$xinst 0000  
                               _port_reg 0001                                 _tris_reg 0015  
       ??_gpio_port_direction_initialize 002F          ?_gpio_port_direction_initialize 002E  
     gpio_port_direction_initialize@port 0032             __end_of_gpio_pin_write_logic 149C  
             gpio_port_write_logic@logic 0036  
